
cg_aarch64.o:	file format ELF64-aarch64-little


Disassembly of section .text.main:

0000000000000000 main:
       0: ff 83 04 d1                  	sub	sp, sp, #288
       4: f4 4f 10 a9                  	stp	x20, x19, [sp, #256]
       8: fd 7b 11 a9                  	stp	x29, x30, [sp, #272]
       c: fd 43 04 91                  	add	x29, sp, #272
      10: e8 03 1f 2a                  	mov	w8, wzr
      14: a0 7f 3c 29                  	stp	w0, wzr, [x29, #-32]
      18: a1 83 1d f8                  	stur	x1, [x29, #-40]
      1c: bf 43 1d b8                  	stur	wzr, [x29, #-44]
      20: a8 43 5d b8                  	ldur	w8, [x29, #-44]
      24: 1f 09 00 71                  	cmp	w8, #2
      28: 2c 01 00 54                  	b.gt	#36 <main+0x4c>
      2c: a0 43 5d b8                  	ldur	w0, [x29, #-44]
      30: 1f 20 03 d5                  	nop
      34: 1f 20 03 d5                  	nop
      38: 00 00 00 94                  	bl	#0 <main+0x38>
      3c: a8 43 5d b8                  	ldur	w8, [x29, #-44]
      40: 08 05 00 11                  	add	w8, w8, #1
      44: a8 43 1d b8                  	stur	w8, [x29, #-44]
      48: f6 ff ff 17                  	b	#-40 <main+0x20>
      4c: 00 00 00 90                  	adrp	x0, #0
      50: 01 00 00 90                  	adrp	x1, #0
      54: 00 00 00 91                  	add	x0, x0, #0
      58: 21 00 00 91                  	add	x1, x1, #0
      5c: 00 00 00 94                  	bl	#0 <main+0x5c>
      60: e8 2f 00 f9                  	str	x8, [sp, #88]
      64: 88 02 00 b4                  	cbz	x8, #80 <main+0xb4>
      68: 08 00 00 90                  	adrp	x8, #0
      6c: 30 00 80 52                  	mov	w16, #1
      70: 10 01 00 b9                  	str	w16, [x8]
      74: 08 00 00 90                  	adrp	x8, #0
      78: 08 01 00 91                  	add	x8, x8, #0
      7c: e8 33 00 f9                  	str	x8, [sp, #96]
      80: 08 00 00 90                  	adrp	x8, #0
      84: e0 2f 40 f9                  	ldr	x0, [sp, #88]
      88: 08 01 00 91                  	add	x8, x8, #0
      8c: e8 37 00 f9                  	str	x8, [sp, #104]
      90: 08 00 00 90                  	adrp	x8, #0
      94: 08 01 00 91                  	add	x8, x8, #0
      98: e8 3b 00 f9                  	str	x8, [sp, #112]
      9c: 1f 20 03 d5                  	nop
      a0: 1f 20 03 d5                  	nop
      a4: 1f 20 03 d5                  	nop
      a8: 1f 20 03 d5                  	nop
      ac: 00 00 00 94                  	bl	#0 <main+0xac>
      b0: 04 00 00 14                  	b	#16 <main+0xc0>
      b4: 08 00 00 90                  	adrp	x8, #0
      b8: f0 03 1f 2a                  	mov	w16, wzr
      bc: 1f 01 00 b9                  	str	wzr, [x8]
      c0: e0 03 1f 2a                  	mov	w0, wzr
      c4: f3 03 1f 2a                  	mov	w19, wzr
      c8: 00 00 00 94                  	bl	#0 <main+0xc8>
      cc: 08 00 00 90                  	adrp	x8, #0
      d0: 13 01 00 b9                  	str	w19, [x8]
      d4: 10 00 00 90                  	adrp	x16, #0
      d8: e8 ae 80 52                  	mov	w8, #1399
      dc: 08 02 00 b9                  	str	w8, [x16]
      e0: 10 00 00 90                  	adrp	x16, #0
      e4: 13 02 00 b9                  	str	w19, [x16]
      e8: 10 00 00 90                  	adrp	x16, #0
      ec: 08 02 00 b9                  	str	w8, [x16]
      f0: 68 0a 80 52                  	mov	w8, #83
      f4: a8 c3 18 38                  	sturb	w8, [x29, #-116]
      f8: 08 e9 8b d2                  	mov	x8, #24392
      fc: 88 02 a8 f2                  	movk	x8, #16404, lsl #16
     100: 28 38 c6 f2                  	movk	x8, #12737, lsl #32
     104: 00 00 00 90                  	adrp	x0, #0
     108: 28 04 e8 f2                  	movk	x8, #16417, lsl #48
     10c: 00 00 00 91                  	add	x0, x0, #0
     110: a8 03 18 f8                  	stur	x8, [x29, #-128]
     114: 00 00 00 94                  	bl	#0 <main+0x114>
     118: 00 00 00 90                  	adrp	x0, #0
     11c: 14 af 80 52                  	mov	w20, #1400
     120: 00 00 00 91                  	add	x0, x0, #0
     124: e1 03 14 2a                  	mov	w1, w20
     128: 00 00 00 94                  	bl	#0 <main+0x128>
     12c: 00 00 00 90                  	adrp	x0, #0
     130: 00 00 00 91                  	add	x0, x0, #0
     134: e1 01 80 52                  	mov	w1, #15
     138: 1f 20 03 d5                  	nop
     13c: 00 00 00 94                  	bl	#0 <main+0x13c>
     140: 00 00 00 90                  	adrp	x0, #0
     144: 00 00 00 91                  	add	x0, x0, #0
     148: 1f 20 03 d5                  	nop
     14c: 00 00 00 94                  	bl	#0 <main+0x14c>
     150: 08 00 00 90                  	adrp	x8, #0
     154: 14 01 00 b9                  	str	w20, [x8]
     158: 08 c0 8b 52                  	mov	w8, #24064
     15c: 14 00 00 90                  	adrp	x20, #0
     160: 28 00 a0 72                  	movk	w8, #1, lsl #16
     164: 88 02 00 b9                  	str	w8, [x20]
     168: 08 20 b4 d2                  	mov	x8, #2701131776
     16c: 00 00 00 90                  	adrp	x0, #0
     170: 08 36 d7 f2                  	movk	x8, #47536, lsl #32
     174: 10 a8 bc d2                  	mov	x16, #3846176768
     178: 00 00 00 91                  	add	x0, x0, #0
     17c: 48 36 e8 f2                  	movk	x8, #16818, lsl #48
     180: 90 13 c6 f2                  	movk	x16, #12444, lsl #32
     184: 08 00 00 f9                  	str	x8, [x0]
     188: 08 00 00 90                  	adrp	x8, #0
     18c: 50 3a e8 f2                  	movk	x16, #16850, lsl #48
     190: 10 01 00 f9                  	str	x16, [x8]
     194: 08 00 00 90                  	adrp	x8, #0
     198: 00 01 40 fd                  	ldr	d0, [x8]
     19c: 00 00 00 94                  	bl	#0 <main+0x19c>
     1a0: 12 00 00 90                  	adrp	x18, #0
     1a4: 08 00 00 90                  	adrp	x8, #0
     1a8: 52 02 00 91                  	add	x18, x18, #0
     1ac: e2 03 00 91                  	mov	x2, sp
     1b0: 00 01 40 b9                  	ldr	w0, [x8]
     1b4: 08 00 00 90                  	adrp	x8, #0
     1b8: 52 18 00 f9                  	str	x18, [x2, #48]
     1bc: 12 00 00 90                  	adrp	x18, #0
     1c0: 05 01 40 b9                  	ldr	w5, [x8]
     1c4: 08 00 00 90                  	adrp	x8, #0
     1c8: 10 00 00 90                  	adrp	x16, #0
     1cc: 11 00 00 90                  	adrp	x17, #0
     1d0: 52 02 00 91                  	add	x18, x18, #0
     1d4: 08 01 40 b9                  	ldr	w8, [x8]
     1d8: 10 02 40 b9                  	ldr	w16, [x16]
     1dc: 31 02 40 b9                  	ldr	w17, [x17]
     1e0: 52 14 00 f9                  	str	x18, [x2, #40]
     1e4: 12 00 00 90                  	adrp	x18, #0
     1e8: 52 02 00 91                  	add	x18, x18, #0
     1ec: 81 02 40 b9                  	ldr	w1, [x20]
     1f0: 52 10 00 f9                  	str	x18, [x2, #32]
     1f4: 12 00 00 90                  	adrp	x18, #0
     1f8: 52 02 00 91                  	add	x18, x18, #0
     1fc: 52 0c 00 f9                  	str	x18, [x2, #24]
     200: 51 10 00 b9                  	str	w17, [x2, #16]
     204: 50 08 00 b9                  	str	w16, [x2, #8]
     208: 48 00 00 b9                  	str	w8, [x2]
     20c: 02 00 00 90                  	adrp	x2, #0
     210: 03 00 00 90                  	adrp	x3, #0
     214: 04 00 00 90                  	adrp	x4, #0
     218: 42 00 00 91                  	add	x2, x2, #0
     21c: 63 00 00 91                  	add	x3, x3, #0
     220: 84 00 00 91                  	add	x4, x4, #0
     224: a0 03 1c fc                  	stur	d0, [x29, #-64]
     228: 00 00 00 94                  	bl	#0 <main+0x228>
     22c: b3 03 1d b8                  	stur	w19, [x29, #-48]
     230: 04 00 00 14                  	b	#16 <main+0x240>
     234: a8 03 5d b8                  	ldur	w8, [x29, #-48]
     238: 08 05 00 11                  	add	w8, w8, #1
     23c: a8 03 1d b8                  	stur	w8, [x29, #-48]
     240: 10 00 00 90                  	adrp	x16, #0
     244: 11 00 00 90                  	adrp	x17, #0
     248: 10 02 40 b9                  	ldr	w16, [x16]
     24c: 31 02 40 b9                  	ldr	w17, [x17]
     250: a8 03 5d b8                  	ldur	w8, [x29, #-48]
     254: 10 02 11 4b                  	sub	w16, w16, w17
     258: 10 06 00 11                  	add	w16, w16, #1
     25c: 1f 01 10 6b                  	cmp	w8, w16
     260: 4a 03 00 54                  	b.ge	#104 <main+0x2c8>
     264: a8 03 9d b8                  	ldursw	x8, [x29, #-48]
     268: 10 00 00 90                  	adrp	x16, #0
     26c: 10 02 00 91                  	add	x16, x16, #0
     270: 08 7a 68 b8                  	ldr	w8, [x16, x8, lsl #2]
     274: b0 03 9d b8                  	ldursw	x16, [x29, #-48]
     278: 11 00 00 90                  	adrp	x17, #0
     27c: 31 02 00 91                  	add	x17, x17, #0
     280: a8 c3 1c b8                  	stur	w8, [x29, #-52]
     284: 30 0a 10 8b                  	add	x16, x17, x16, lsl #2
     288: 10 06 40 b9                  	ldr	w16, [x16, #4]
     28c: e8 03 08 2a                  	mov	w8, w8
     290: 1f 01 10 6b                  	cmp	w8, w16
     294: 0a fd ff 54                  	b.ge	#-96 <main+0x234>
     298: a8 c3 9c b8                  	ldursw	x8, [x29, #-52]
     29c: 11 00 00 90                  	adrp	x17, #0
     2a0: 31 02 00 91                  	add	x17, x17, #0
     2a4: 00 00 00 90                  	adrp	x0, #0
     2a8: f0 03 08 2a                  	mov	w16, w8
     2ac: 08 f5 7e d3                  	lsl	x8, x8, #2
     2b0: 32 6a 68 b8                  	ldr	w18, [x17, x8]
     2b4: 00 00 40 b9                  	ldr	w0, [x0]
     2b8: 52 02 00 4b                  	sub	w18, w18, w0
     2bc: 32 6a 28 b8                  	str	w18, [x17, x8]
     2c0: 08 06 00 11                  	add	w8, w16, #1
     2c4: ec ff ff 17                  	b	#-80 <main+0x274>
     2c8: 11 00 00 90                  	adrp	x17, #0
     2cc: 31 02 00 91                  	add	x17, x17, #0
     2d0: 12 fe e7 d2                  	mov	x18, #4607182418800017408
     2d4: e8 03 1f 2a                  	mov	w8, wzr
     2d8: bf 43 1d b8                  	stur	wzr, [x29, #-44]
     2dc: a8 43 5d b8                  	ldur	w8, [x29, #-44]
     2e0: 1f e1 15 71                  	cmp	w8, #1400
     2e4: ec 00 00 54                  	b.gt	#28 <main+0x300>
     2e8: a8 43 9d b8                  	ldursw	x8, [x29, #-44]
     2ec: f0 03 08 2a                  	mov	w16, w8
     2f0: 32 7a 28 f8                  	str	x18, [x17, x8, lsl #3]
     2f4: 08 05 00 11                  	add	w8, w8, #1
     2f8: a8 43 1d b8                  	stur	w8, [x29, #-44]
     2fc: f8 ff ff 17                  	b	#-32 <main+0x2dc>
     300: e8 03 1f 2a                  	mov	w8, wzr
     304: bf 03 1d b8                  	stur	wzr, [x29, #-48]
     308: 10 00 00 90                  	adrp	x16, #0
     30c: 11 00 00 90                  	adrp	x17, #0
     310: 10 02 40 b9                  	ldr	w16, [x16]
     314: 31 02 40 b9                  	ldr	w17, [x17]
     318: a8 03 5d b8                  	ldur	w8, [x29, #-48]
     31c: 10 02 11 4b                  	sub	w16, w16, w17
     320: 10 06 00 11                  	add	w16, w16, #1
     324: 1f 01 10 6b                  	cmp	w8, w16
     328: 8a 02 00 54                  	b.ge	#80 <main+0x378>
     32c: a8 03 9d b8                  	ldursw	x8, [x29, #-48]
     330: 11 00 00 90                  	adrp	x17, #0
     334: 31 02 00 91                  	add	x17, x17, #0
     338: f2 03 1f aa                  	mov	x18, xzr
     33c: f0 03 08 2a                  	mov	w16, w8
     340: 08 f1 7d d3                  	lsl	x8, x8, #3
     344: 3f 6a 28 f8                  	str	xzr, [x17, x8]
     348: 11 00 00 90                  	adrp	x17, #0
     34c: 31 02 00 91                  	add	x17, x17, #0
     350: 3f 6a 28 f8                  	str	xzr, [x17, x8]
     354: 11 00 00 90                  	adrp	x17, #0
     358: 31 02 00 91                  	add	x17, x17, #0
     35c: 3f 6a 28 f8                  	str	xzr, [x17, x8]
     360: 11 00 00 90                  	adrp	x17, #0
     364: 31 02 00 91                  	add	x17, x17, #0
     368: 3f 6a 28 f8                  	str	xzr, [x17, x8]
     36c: 08 06 00 11                  	add	w8, w16, #1
     370: a8 03 1d b8                  	stur	w8, [x29, #-48]
     374: e5 ff ff 17                  	b	#-108 <main+0x308>
     378: e8 03 1f aa                  	mov	x8, xzr
     37c: 28 00 80 52                  	mov	w8, #1
     380: bf 03 1c f8                  	stur	xzr, [x29, #-64]
     384: 03 00 00 14                  	b	#12 <main+0x390>
     388: a8 83 5c b8                  	ldur	w8, [x29, #-56]
     38c: 08 05 00 11                  	add	w8, w8, #1
     390: a8 83 1c b8                  	stur	w8, [x29, #-56]
     394: e8 03 08 2a                  	mov	w8, w8
     398: 1f 05 00 71                  	cmp	w8, #1
     39c: 6c 0b 00 54                  	b.gt	#364 <main+0x508>
     3a0: e8 03 00 91                  	mov	x8, sp
     3a4: b0 23 01 d1                  	sub	x16, x29, #72
     3a8: 10 09 00 f9                  	str	x16, [x8, #16]
     3ac: 10 00 00 90                  	adrp	x16, #0
     3b0: 10 02 00 91                  	add	x16, x16, #0
     3b4: 10 05 00 f9                  	str	x16, [x8, #8]
     3b8: 10 00 00 90                  	adrp	x16, #0
     3bc: 00 00 00 90                  	adrp	x0, #0
     3c0: 01 00 00 90                  	adrp	x1, #0
     3c4: 02 00 00 90                  	adrp	x2, #0
     3c8: 03 00 00 90                  	adrp	x3, #0
     3cc: 04 00 00 90                  	adrp	x4, #0
     3d0: 05 00 00 90                  	adrp	x5, #0
     3d4: 10 02 00 91                  	add	x16, x16, #0
     3d8: 00 00 00 91                  	add	x0, x0, #0
     3dc: 21 00 00 91                  	add	x1, x1, #0
     3e0: 42 00 00 91                  	add	x2, x2, #0
     3e4: 63 00 00 91                  	add	x3, x3, #0
     3e8: 84 00 00 91                  	add	x4, x4, #0
     3ec: a5 00 00 91                  	add	x5, x5, #0
     3f0: 10 01 00 f9                  	str	x16, [x8]
     3f4: 00 00 00 94                  	bl	#0 <main+0x3f4>
     3f8: e8 03 1f aa                  	mov	x8, xzr
     3fc: bf ff 3a a9                  	stp	xzr, xzr, [x29, #-88]
     400: e8 03 1f 2a                  	mov	w8, wzr
     404: bf 03 1d b8                  	stur	wzr, [x29, #-48]
     408: 10 00 00 90                  	adrp	x16, #0
     40c: 11 00 00 90                  	adrp	x17, #0
     410: 10 02 40 b9                  	ldr	w16, [x16]
     414: 31 02 40 b9                  	ldr	w17, [x17]
     418: a8 03 5d b8                  	ldur	w8, [x29, #-48]
     41c: 10 02 11 4b                  	sub	w16, w16, w17
     420: 10 06 00 11                  	add	w16, w16, #1
     424: 1f 01 10 6b                  	cmp	w8, w16
     428: aa 02 00 54                  	b.ge	#84 <main+0x47c>
     42c: a8 03 9d b8                  	ldursw	x8, [x29, #-48]
     430: 11 00 00 90                  	adrp	x17, #0
     434: 31 02 00 91                  	add	x17, x17, #0
     438: a0 03 5b fc                  	ldur	d0, [x29, #-80]
     43c: f0 03 08 2a                  	mov	w16, w8
     440: 08 f1 7d d3                  	lsl	x8, x8, #3
     444: 21 6a 68 fc                  	ldr	d1, [x17, x8]
     448: 11 00 00 90                  	adrp	x17, #0
     44c: 31 02 00 91                  	add	x17, x17, #0
     450: 22 6a 68 fc                  	ldr	d2, [x17, x8]
     454: 08 06 00 11                  	add	w8, w16, #1
     458: a8 03 1d b8                  	stur	w8, [x29, #-48]
     45c: 21 08 62 1e                  	fmul	d1, d1, d2
     460: 00 28 61 1e                  	fadd	d0, d0, d1
     464: a0 03 1b fc                  	stur	d0, [x29, #-80]
     468: a0 83 5a fc                  	ldur	d0, [x29, #-88]
     46c: 41 08 62 1e                  	fmul	d1, d2, d2
     470: 00 28 61 1e                  	fadd	d0, d0, d1
     474: a0 83 1a fc                  	stur	d0, [x29, #-88]
     478: e4 ff ff 17                  	b	#-112 <main+0x408>
     47c: a0 83 5a fc                  	ldur	d0, [x29, #-88]
     480: 01 c0 61 1e                  	fsqrt	d1, d0
     484: 20 20 61 1e                  	fcmp	d1, d1
     488: 87 00 00 54                  	b.vc	#16 <main+0x498>
     48c: 1f 20 03 d5                  	nop
     490: 00 00 00 94                  	bl	#0 <main+0x490>
     494: 01 1c a0 4e                  	mov	v1.16b, v0.16b
     498: 00 10 6e 1e                  	fmov	d0, #1.00000000
     49c: 00 18 61 1e                  	fdiv	d0, d0, d1
     4a0: a0 83 1a fc                  	stur	d0, [x29, #-88]
     4a4: e8 03 1f 2a                  	mov	w8, wzr
     4a8: bf 03 1d b8                  	stur	wzr, [x29, #-48]
     4ac: 10 00 00 90                  	adrp	x16, #0
     4b0: 11 00 00 90                  	adrp	x17, #0
     4b4: 10 02 40 b9                  	ldr	w16, [x16]
     4b8: 31 02 40 b9                  	ldr	w17, [x17]
     4bc: a8 03 5d b8                  	ldur	w8, [x29, #-48]
     4c0: 10 02 11 4b                  	sub	w16, w16, w17
     4c4: 10 06 00 11                  	add	w16, w16, #1
     4c8: 1f 01 10 6b                  	cmp	w8, w16
     4cc: ea f5 ff 54                  	b.ge	#-324 <main+0x388>
     4d0: a8 03 9d b8                  	ldursw	x8, [x29, #-48]
     4d4: 11 00 00 90                  	adrp	x17, #0
     4d8: 31 02 00 91                  	add	x17, x17, #0
     4dc: a0 83 5a fc                  	ldur	d0, [x29, #-88]
     4e0: f0 03 08 2a                  	mov	w16, w8
     4e4: 08 f1 7d d3                  	lsl	x8, x8, #3
     4e8: 21 6a 68 fc                  	ldr	d1, [x17, x8]
     4ec: 11 00 00 90                  	adrp	x17, #0
     4f0: 31 02 00 91                  	add	x17, x17, #0
     4f4: 00 08 61 1e                  	fmul	d0, d0, d1
     4f8: 20 6a 28 fc                  	str	d0, [x17, x8]
     4fc: 08 06 00 11                  	add	w8, w16, #1
     500: a8 03 1d b8                  	stur	w8, [x29, #-48]
     504: ea ff ff 17                  	b	#-88 <main+0x4ac>
     508: 11 00 00 90                  	adrp	x17, #0
     50c: 31 02 00 91                  	add	x17, x17, #0
     510: 12 fe e7 d2                  	mov	x18, #4607182418800017408
     514: e8 03 1f 2a                  	mov	w8, wzr
     518: bf 43 1d b8                  	stur	wzr, [x29, #-44]
     51c: a8 43 5d b8                  	ldur	w8, [x29, #-44]
     520: 1f e1 15 71                  	cmp	w8, #1400
     524: ec 00 00 54                  	b.gt	#28 <main+0x540>
     528: a8 43 9d b8                  	ldursw	x8, [x29, #-44]
     52c: f0 03 08 2a                  	mov	w16, w8
     530: 32 7a 28 f8                  	str	x18, [x17, x8, lsl #3]
     534: 08 05 00 11                  	add	w8, w8, #1
     538: a8 43 1d b8                  	stur	w8, [x29, #-44]
     53c: f8 ff ff 17                  	b	#-32 <main+0x51c>
     540: e0 03 1f 2a                  	mov	w0, wzr
     544: bf 03 1c f8                  	stur	xzr, [x29, #-64]
     548: f3 03 1f 2a                  	mov	w19, wzr
     54c: 00 00 00 94                  	bl	#0 <main+0x54c>
     550: e0 03 13 2a                  	mov	w0, w19
     554: 00 00 00 94                  	bl	#0 <main+0x554>
     558: 00 00 00 90                  	adrp	x0, #0
     55c: 00 00 00 91                  	add	x0, x0, #0
     560: 1f 20 03 d5                  	nop
     564: 00 00 00 94                  	bl	#0 <main+0x564>
     568: 33 00 80 52                  	mov	w19, #1
     56c: e0 03 13 2a                  	mov	w0, w19
     570: 00 00 00 94                  	bl	#0 <main+0x570>
     574: b3 83 1c b8                  	stur	w19, [x29, #-56]
     578: 04 00 00 14                  	b	#16 <main+0x588>
     57c: a8 83 5c b8                  	ldur	w8, [x29, #-56]
     580: 08 05 00 11                  	add	w8, w8, #1
     584: a8 83 1c b8                  	stur	w8, [x29, #-56]
     588: a8 83 5c b8                  	ldur	w8, [x29, #-56]
     58c: 1f 3d 00 71                  	cmp	w8, #15
     590: ec 0f 00 54                  	b.gt	#508 <main+0x78c>
     594: 08 00 00 90                  	adrp	x8, #0
     598: 08 01 40 b9                  	ldr	w8, [x8]
     59c: c8 00 00 34                  	cbz	w8, #24 <main+0x5b4>
     5a0: 40 00 80 52                  	mov	w0, #2
     5a4: 1f 20 03 d5                  	nop
     5a8: 1f 20 03 d5                  	nop
     5ac: 1f 20 03 d5                  	nop
     5b0: 00 00 00 94                  	bl	#0 <main+0x5b0>
     5b4: e8 03 00 91                  	mov	x8, sp
     5b8: b0 23 01 d1                  	sub	x16, x29, #72
     5bc: 10 09 00 f9                  	str	x16, [x8, #16]
     5c0: 10 00 00 90                  	adrp	x16, #0
     5c4: 10 02 00 91                  	add	x16, x16, #0
     5c8: 10 05 00 f9                  	str	x16, [x8, #8]
     5cc: 10 00 00 90                  	adrp	x16, #0
     5d0: 00 00 00 90                  	adrp	x0, #0
     5d4: 01 00 00 90                  	adrp	x1, #0
     5d8: 02 00 00 90                  	adrp	x2, #0
     5dc: 03 00 00 90                  	adrp	x3, #0
     5e0: 04 00 00 90                  	adrp	x4, #0
     5e4: 05 00 00 90                  	adrp	x5, #0
     5e8: 10 02 00 91                  	add	x16, x16, #0
     5ec: 00 00 00 91                  	add	x0, x0, #0
     5f0: 21 00 00 91                  	add	x1, x1, #0
     5f4: 42 00 00 91                  	add	x2, x2, #0
     5f8: 63 00 00 91                  	add	x3, x3, #0
     5fc: 84 00 00 91                  	add	x4, x4, #0
     600: a5 00 00 91                  	add	x5, x5, #0
     604: 10 01 00 f9                  	str	x16, [x8]
     608: 00 00 00 94                  	bl	#0 <main+0x608>
     60c: 08 00 00 90                  	adrp	x8, #0
     610: 08 01 40 b9                  	ldr	w8, [x8]
     614: a8 00 00 34                  	cbz	w8, #20 <main+0x628>
     618: 40 00 80 52                  	mov	w0, #2
     61c: 1f 20 03 d5                  	nop
     620: 1f 20 03 d5                  	nop
     624: 00 00 00 94                  	bl	#0 <main+0x624>
     628: e8 03 1f aa                  	mov	x8, xzr
     62c: bf ff 3a a9                  	stp	xzr, xzr, [x29, #-88]
     630: e8 03 1f 2a                  	mov	w8, wzr
     634: bf 03 1d b8                  	stur	wzr, [x29, #-48]
     638: 10 00 00 90                  	adrp	x16, #0
     63c: 11 00 00 90                  	adrp	x17, #0
     640: 10 02 40 b9                  	ldr	w16, [x16]
     644: 31 02 40 b9                  	ldr	w17, [x17]
     648: a8 03 5d b8                  	ldur	w8, [x29, #-48]
     64c: 10 02 11 4b                  	sub	w16, w16, w17
     650: 10 06 00 11                  	add	w16, w16, #1
     654: 1f 01 10 6b                  	cmp	w8, w16
     658: aa 02 00 54                  	b.ge	#84 <main+0x6ac>
     65c: a8 03 9d b8                  	ldursw	x8, [x29, #-48]
     660: 11 00 00 90                  	adrp	x17, #0
     664: 31 02 00 91                  	add	x17, x17, #0
     668: a0 03 5b fc                  	ldur	d0, [x29, #-80]
     66c: f0 03 08 2a                  	mov	w16, w8
     670: 08 f1 7d d3                  	lsl	x8, x8, #3
     674: 21 6a 68 fc                  	ldr	d1, [x17, x8]
     678: 11 00 00 90                  	adrp	x17, #0
     67c: 31 02 00 91                  	add	x17, x17, #0
     680: 22 6a 68 fc                  	ldr	d2, [x17, x8]
     684: 08 06 00 11                  	add	w8, w16, #1
     688: a8 03 1d b8                  	stur	w8, [x29, #-48]
     68c: 21 08 62 1e                  	fmul	d1, d1, d2
     690: 00 28 61 1e                  	fadd	d0, d0, d1
     694: a0 03 1b fc                  	stur	d0, [x29, #-80]
     698: a0 83 5a fc                  	ldur	d0, [x29, #-88]
     69c: 41 08 62 1e                  	fmul	d1, d2, d2
     6a0: 00 28 61 1e                  	fadd	d0, d0, d1
     6a4: a0 83 1a fc                  	stur	d0, [x29, #-88]
     6a8: e4 ff ff 17                  	b	#-112 <main+0x638>
     6ac: a0 83 5a fc                  	ldur	d0, [x29, #-88]
     6b0: 01 c0 61 1e                  	fsqrt	d1, d0
     6b4: 20 20 61 1e                  	fcmp	d1, d1
     6b8: 87 00 00 54                  	b.vc	#16 <main+0x6c8>
     6bc: 1f 20 03 d5                  	nop
     6c0: 00 00 00 94                  	bl	#0 <main+0x6c0>
     6c4: 01 1c a0 4e                  	mov	v1.16b, v0.16b
     6c8: 00 10 6e 1e                  	fmov	d0, #1.00000000
     6cc: 01 18 61 1e                  	fdiv	d1, d0, d1
     6d0: a1 83 1a fc                  	stur	d1, [x29, #-88]
     6d4: a1 03 5b fc                  	ldur	d1, [x29, #-80]
     6d8: a8 83 5c b8                  	ldur	w8, [x29, #-56]
     6dc: 00 18 61 1e                  	fdiv	d0, d0, d1
     6e0: 01 90 64 1e                  	fmov	d1, #10.00000000
     6e4: 00 28 61 1e                  	fadd	d0, d0, d1
     6e8: 1f 05 00 71                  	cmp	w8, #1
     6ec: a0 03 1c fc                  	stur	d0, [x29, #-64]
     6f0: e1 00 00 54                  	b.ne	#28 <main+0x70c>
     6f4: 00 00 00 90                  	adrp	x0, #0
     6f8: 00 00 00 91                  	add	x0, x0, #0
     6fc: 1f 20 03 d5                  	nop
     700: 1f 20 03 d5                  	nop
     704: 1f 20 03 d5                  	nop
     708: 00 00 00 94                  	bl	#0 <main+0x708>
     70c: a1 83 5c b8                  	ldur	w1, [x29, #-56]
     710: a0 87 7b 6d                  	ldp	d0, d1, [x29, #-72]
     714: 00 00 00 90                  	adrp	x0, #0
     718: 00 00 00 91                  	add	x0, x0, #0
     71c: 1f 20 03 d5                  	nop
     720: 1f 20 03 d5                  	nop
     724: 00 00 00 94                  	bl	#0 <main+0x724>
     728: e8 03 1f 2a                  	mov	w8, wzr
     72c: bf 03 1d b8                  	stur	wzr, [x29, #-48]
     730: 10 00 00 90                  	adrp	x16, #0
     734: 11 00 00 90                  	adrp	x17, #0
     738: 10 02 40 b9                  	ldr	w16, [x16]
     73c: 31 02 40 b9                  	ldr	w17, [x17]
     740: a8 03 5d b8                  	ldur	w8, [x29, #-48]
     744: 10 02 11 4b                  	sub	w16, w16, w17
     748: 10 06 00 11                  	add	w16, w16, #1
     74c: 1f 01 10 6b                  	cmp	w8, w16
     750: 6a f1 ff 54                  	b.ge	#-468 <main+0x57c>
     754: a8 03 9d b8                  	ldursw	x8, [x29, #-48]
     758: 11 00 00 90                  	adrp	x17, #0
     75c: 31 02 00 91                  	add	x17, x17, #0
     760: a0 83 5a fc                  	ldur	d0, [x29, #-88]
     764: f0 03 08 2a                  	mov	w16, w8
     768: 08 f1 7d d3                  	lsl	x8, x8, #3
     76c: 21 6a 68 fc                  	ldr	d1, [x17, x8]
     770: 11 00 00 90                  	adrp	x17, #0
     774: 31 02 00 91                  	add	x17, x17, #0
     778: 00 08 61 1e                  	fmul	d0, d0, d1
     77c: 20 6a 28 fc                  	str	d0, [x17, x8]
     780: 08 06 00 11                  	add	w8, w16, #1
     784: a8 03 1d b8                  	stur	w8, [x29, #-48]
     788: ea ff ff 17                  	b	#-88 <main+0x730>
     78c: 33 00 80 52                  	mov	w19, #1
     790: e0 03 13 2a                  	mov	w0, w19
     794: 00 00 00 94                  	bl	#0 <main+0x794>
     798: e0 03 13 2a                  	mov	w0, w19
     79c: 00 00 00 94                  	bl	#0 <main+0x79c>
     7a0: 00 00 00 90                  	adrp	x0, #0
     7a4: 00 00 00 91                  	add	x0, x0, #0
     7a8: a0 03 1a fc                  	stur	d0, [x29, #-96]
     7ac: 1f 20 03 d5                  	nop
     7b0: 00 00 00 94                  	bl	#0 <main+0x7b0>
     7b4: 68 b7 97 d2                  	mov	x8, #48571
     7b8: e8 3a bb f2                  	movk	x8, #55767, lsl #16
     7bc: e8 9b cf f2                  	movk	x8, #31967, lsl #32
     7c0: 68 bb e7 f2                  	movk	x8, #15835, lsl #48
     7c4: e8 47 00 f9                  	str	x8, [sp, #136]
     7c8: a8 c3 d8 38                  	ldursb	w8, [x29, #-116]
     7cc: 1f 55 01 71                  	cmp	w8, #85
     7d0: a0 03 00 54                  	b.eq	#116 <main+0x844>
     7d4: a0 03 5c fc                  	ldur	d0, [x29, #-64]
     7d8: a1 03 58 fc                  	ldur	d1, [x29, #-128]
     7dc: 00 d4 e1 7e                  	fabd	d0, d0, d1
     7e0: 00 18 61 1e                  	fdiv	d0, d0, d1
     7e4: e1 47 40 fd                  	ldr	d1, [sp, #136]
     7e8: e0 43 00 fd                  	str	d0, [sp, #128]
     7ec: 00 20 61 1e                  	fcmp	d0, d1
     7f0: 28 04 00 54                  	b.hi	#132 <main+0x874>
     7f4: 00 00 00 90                  	adrp	x0, #0
     7f8: 28 00 80 52                  	mov	w8, #1
     7fc: 00 00 00 91                  	add	x0, x0, #0
     800: a8 83 18 b8                  	stur	w8, [x29, #-120]
     804: 1f 20 03 d5                  	nop
     808: 1f 20 03 d5                  	nop
     80c: 1f 20 03 d5                  	nop
     810: 1f 20 03 d5                  	nop
     814: 1f 20 03 d5                  	nop
     818: 00 00 00 94                  	bl	#0 <main+0x818>
     81c: a0 03 5c fc                  	ldur	d0, [x29, #-64]
     820: 00 00 00 90                  	adrp	x0, #0
     824: 00 00 00 91                  	add	x0, x0, #0
     828: 1f 20 03 d5                  	nop
     82c: 1f 20 03 d5                  	nop
     830: 00 00 00 94                  	bl	#0 <main+0x830>
     834: e0 43 40 fd                  	ldr	d0, [sp, #128]
     838: 00 00 00 90                  	adrp	x0, #0
     83c: 00 00 00 91                  	add	x0, x0, #0
     840: 1b 00 00 14                  	b	#108 <main+0x8ac>
     844: 00 00 00 90                  	adrp	x0, #0
     848: 00 00 00 91                  	add	x0, x0, #0
     84c: bf 83 18 b8                  	stur	wzr, [x29, #-120]
     850: 00 00 00 94                  	bl	#0 <main+0x850>
     854: 00 00 00 90                  	adrp	x0, #0
     858: 00 00 00 91                  	add	x0, x0, #0
     85c: 1f 20 03 d5                  	nop
     860: 1f 20 03 d5                  	nop
     864: 1f 20 03 d5                  	nop
     868: 1f 20 03 d5                  	nop
     86c: 00 00 00 94                  	bl	#0 <main+0x86c>
     870: 12 00 00 14                  	b	#72 <main+0x8b8>
     874: 00 00 00 90                  	adrp	x0, #0
     878: 00 00 00 91                  	add	x0, x0, #0
     87c: bf 83 18 b8                  	stur	wzr, [x29, #-120]
     880: 00 00 00 94                  	bl	#1 <main+0x880>
     884: a0 03 5c fc                  	ldur	d0, [x29, #-64]
     888: 00 00 00 90                  	adrp	x0, #0
     88c: 00 00 00 91                  	add	x0, x0, #0
     890: 1f 20 03 d5                  	nop
     894: 1f 20 03 d5                  	nop
     898: 1f 20 03 d5                  	nop
     89c: 00 00 00 94                  	bl	#0 <main+0x89c>
     8a0: a0 03 58 fc                  	ldur	d0, [x29, #-128]
     8a4: 00 00 00 90                  	adrp	x0, #0
     8a8: 00 00 00 91                  	add	x0, x0, #0
     8ac: 1f 20 03 d5                  	nop
     8b0: 1f 20 03 d5                  	nop
     8b4: 00 00 00 94                  	bl	#0 <main+0x8b4>
     8b8: a0 03 5a fc                  	ldur	d0, [x29, #-96]
     8bc: 08 20 60 1e                  	fcmp	d0, #0.0
     8c0: 60 01 00 54                  	b.eq	#44 <main+0x8ec>
     8c4: 08 00 00 90                  	adrp	x8, #0
     8c8: a0 03 5a fc                  	ldur	d0, [x29, #-96]
     8cc: 01 01 40 fd                  	ldr	d1, [x8]
     8d0: 08 90 d0 d2                  	mov	x8, #145685290680320
     8d4: c8 25 e8 f2                  	movk	x8, #16686, lsl #48
     8d8: 20 18 60 1e                  	fdiv	d0, d1, d0
     8dc: 01 01 67 9e                  	fmov	d1, x8
     8e0: 00 18 61 1e                  	fdiv	d0, d0, d1
     8e4: a0 83 19 fc                  	stur	d0, [x29, #-104]
     8e8: 03 00 00 14                  	b	#12 <main+0x8f4>
     8ec: e8 03 1f aa                  	mov	x8, xzr
     8f0: bf 83 19 f8                  	stur	xzr, [x29, #-104]
     8f4: 10 00 00 90                  	adrp	x16, #0
     8f8: 10 02 00 91                  	add	x16, x16, #0
     8fc: f1 03 00 91                  	mov	x17, sp
     900: 30 2a 00 f9                  	str	x16, [x17, #80]
     904: 10 00 00 90                  	adrp	x16, #0
     908: 10 02 00 91                  	add	x16, x16, #0
     90c: 30 26 00 f9                  	str	x16, [x17, #72]
     910: 10 00 00 90                  	adrp	x16, #0
     914: 10 02 00 91                  	add	x16, x16, #0
     918: 30 22 00 f9                  	str	x16, [x17, #64]
     91c: 10 00 00 90                  	adrp	x16, #0
     920: 10 02 00 91                  	add	x16, x16, #0
     924: 30 1e 00 f9                  	str	x16, [x17, #56]
     928: 10 00 00 90                  	adrp	x16, #0
     92c: 10 02 00 91                  	add	x16, x16, #0
     930: 30 1a 00 f9                  	str	x16, [x17, #48]
     934: 10 00 00 90                  	adrp	x16, #0
     938: 10 02 00 91                  	add	x16, x16, #0
     93c: a8 83 58 b8                  	ldur	w8, [x29, #-120]
     940: 30 16 00 f9                  	str	x16, [x17, #40]
     944: 10 00 00 90                  	adrp	x16, #0
     948: 10 02 00 91                  	add	x16, x16, #0
     94c: a1 c3 d8 38                  	ldursb	w1, [x29, #-116]
     950: a1 83 79 6d                  	ldp	d1, d0, [x29, #-104]
     954: 30 12 00 f9                  	str	x16, [x17, #32]
     958: 10 00 00 90                  	adrp	x16, #0
     95c: 10 02 00 91                  	add	x16, x16, #0
     960: 30 0e 00 f9                  	str	x16, [x17, #24]
     964: 10 00 00 90                  	adrp	x16, #0
     968: 28 0a 00 b9                  	str	w8, [x17, #8]
     96c: 08 00 00 90                  	adrp	x8, #0
     970: 00 00 00 90                  	adrp	x0, #0
     974: 10 02 00 91                  	add	x16, x16, #0
     978: 08 01 00 91                  	add	x8, x8, #0
     97c: 00 00 00 91                  	add	x0, x0, #0
     980: 02 af 80 52                  	mov	w2, #1400
     984: e3 03 1f 2a                  	mov	w3, wzr
     988: e5 01 80 52                  	mov	w5, #15
     98c: e4 03 1f 2a                  	mov	w4, wzr
     990: 30 0a 00 f9                  	str	x16, [x17, #16]
     994: 28 02 00 f9                  	str	x8, [x17]
     998: 00 00 00 94                  	bl	#0 <main+0x998>
     99c: 08 00 00 90                  	adrp	x8, #0
     9a0: 08 01 40 b9                  	ldr	w8, [x8]
     9a4: 88 0f 00 34                  	cbz	w8, #496 <main+0xb94>
     9a8: 20 00 80 52                  	mov	w0, #1
     9ac: 1f 20 03 d5                  	nop
     9b0: 1f 20 03 d5                  	nop
     9b4: 1f 20 03 d5                  	nop
     9b8: 1f 20 03 d5                  	nop
     9bc: 1f 20 03 d5                  	nop
     9c0: 1f 20 03 d5                  	nop
     9c4: 1f 20 03 d5                  	nop
     9c8: 1f 20 03 d5                  	nop
     9cc: 1f 20 03 d5                  	nop
     9d0: 1f 20 03 d5                  	nop
     9d4: 1f 20 03 d5                  	nop
     9d8: 1f 20 03 d5                  	nop
     9dc: 1f 20 03 d5                  	nop
     9e0: 1f 20 03 d5                  	nop
     9e4: 1f 20 03 d5                  	nop
     9e8: 1f 20 03 d5                  	nop
     9ec: 1f 20 03 d5                  	nop
     9f0: 1f 20 03 d5                  	nop
     9f4: 1f 20 03 d5                  	nop
     9f8: 1f 20 03 d5                  	nop
     9fc: 1f 20 03 d5                  	nop
     a00: 1f 20 03 d5                  	nop
     a04: 1f 20 03 d5                  	nop
     a08: 1f 20 03 d5                  	nop
     a0c: 1f 20 03 d5                  	nop
     a10: 1f 20 03 d5                  	nop
     a14: 1f 20 03 d5                  	nop
     a18: 1f 20 03 d5                  	nop
     a1c: 1f 20 03 d5                  	nop
     a20: 1f 20 03 d5                  	nop
     a24: 1f 20 03 d5                  	nop
     a28: 1f 20 03 d5                  	nop
     a2c: 1f 20 03 d5                  	nop
     a30: 1f 20 03 d5                  	nop
     a34: 1f 20 03 d5                  	nop
     a38: 1f 20 03 d5                  	nop
     a3c: 1f 20 03 d5                  	nop
     a40: 1f 20 03 d5                  	nop
     a44: 1f 20 03 d5                  	nop
     a48: 1f 20 03 d5                  	nop
     a4c: 1f 20 03 d5                  	nop
     a50: 1f 20 03 d5                  	nop
     a54: 1f 20 03 d5                  	nop
     a58: 1f 20 03 d5                  	nop
     a5c: 1f 20 03 d5                  	nop
     a60: 1f 20 03 d5                  	nop
     a64: 1f 20 03 d5                  	nop
     a68: 1f 20 03 d5                  	nop
     a6c: 1f 20 03 d5                  	nop
     a70: 1f 20 03 d5                  	nop
     a74: 1f 20 03 d5                  	nop
     a78: 1f 20 03 d5                  	nop
     a7c: 1f 20 03 d5                  	nop
     a80: 1f 20 03 d5                  	nop
     a84: 00 00 00 94                  	bl	#0 <main+0xa84>
     a88: 08 20 60 1e                  	fcmp	d0, #0.0
     a8c: a0 03 19 fc                  	stur	d0, [x29, #-112]
     a90: 61 00 00 54                  	b.ne	#12 <main+0xa9c>
     a94: 08 fe e7 d2                  	mov	x8, #4607182418800017408
     a98: a8 03 19 f8                  	stur	x8, [x29, #-112]
     a9c: 00 00 00 90                  	adrp	x0, #0
     aa0: 00 00 00 91                  	add	x0, x0, #0
     aa4: 00 00 00 94                  	bl	#0 <main+0xaa4>
     aa8: e8 03 1f 2a                  	mov	w8, wzr
     aac: bf 43 1d b8                  	stur	wzr, [x29, #-44]
     ab0: 10 00 00 14                  	b	#64 <main+0xaf0>
     ab4: 00 00 00 90                  	adrp	x0, #0
     ab8: 00 00 00 91                  	add	x0, x0, #0
     abc: 1f 20 03 d5                  	nop
     ac0: 1f 20 03 d5                  	nop
     ac4: 1f 20 03 d5                  	nop
     ac8: 1f 20 03 d5                  	nop
     acc: 1f 20 03 d5                  	nop
     ad0: 1f 20 03 d5                  	nop
     ad4: 1f 20 03 d5                  	nop
     ad8: 1f 20 03 d5                  	nop
     adc: 1f 20 03 d5                  	nop
     ae0: 00 00 00 94                  	bl	#0 <main+0xae0>
     ae4: a8 43 5d b8                  	ldur	w8, [x29, #-44]
     ae8: 08 05 00 11                  	add	w8, w8, #1
     aec: a8 43 1d b8                  	stur	w8, [x29, #-44]
     af0: a8 43 5d b8                  	ldur	w8, [x29, #-44]
     af4: 1f 09 00 71                  	cmp	w8, #2
     af8: ec 04 00 54                  	b.gt	#156 <main+0xb94>
     afc: a0 43 5d b8                  	ldur	w0, [x29, #-44]
     b00: 1f 20 03 d5                  	nop
     b04: 1f 20 03 d5                  	nop
     b08: 1f 20 03 d5                  	nop
     b0c: 00 00 00 94                  	bl	#0 <main+0xb0c>
     b10: a8 43 9d b8                  	ldursw	x8, [x29, #-44]
     b14: f1 83 01 91                  	add	x17, sp, #96
     b18: a0 03 1a fc                  	stur	d0, [x29, #-96]
     b1c: 21 7a 68 f8                  	ldr	x1, [x17, x8, lsl #3]
     b20: f0 03 08 2a                  	mov	w16, w8
     b24: 88 fc ff 34                  	cbz	w8, #-112 <main+0xab4>
     b28: a1 03 5a fc                  	ldur	d1, [x29, #-96]
     b2c: 28 0b e8 d2                  	mov	x8, #4636737291354636288
     b30: 02 01 67 9e                  	fmov	d2, x8
     b34: 00 00 00 90                  	adrp	x0, #0
     b38: 21 08 62 1e                  	fmul	d1, d1, d2
     b3c: a2 03 59 fc                  	ldur	d2, [x29, #-112]
     b40: 00 00 00 91                  	add	x0, x0, #0
     b44: 21 18 62 1e                  	fdiv	d1, d1, d2
     b48: 00 00 00 94                  	bl	#0 <main+0xb48>
     b4c: a8 43 5d b8                  	ldur	w8, [x29, #-44]
     b50: 1f 09 00 71                  	cmp	w8, #2
     b54: 81 fc ff 54                  	b.ne	#-112 <main+0xae4>
     b58: a1 03 59 fc                  	ldur	d1, [x29, #-112]
     b5c: a0 03 5a fc                  	ldur	d0, [x29, #-96]
     b60: 28 0b e8 d2                  	mov	x8, #4636737291354636288
     b64: 02 01 67 9e                  	fmov	d2, x8
     b68: 00 00 00 90                  	adrp	x0, #0
     b6c: 20 38 60 1e                  	fsub	d0, d1, d0
     b70: 02 08 62 1e                  	fmul	d2, d0, d2
     b74: 01 00 00 90                  	adrp	x1, #0
     b78: 41 18 61 1e                  	fdiv	d1, d2, d1
     b7c: 00 00 00 91                  	add	x0, x0, #0
     b80: 21 00 00 91                  	add	x1, x1, #0
     b84: a0 03 1a fc                  	stur	d0, [x29, #-96]
     b88: 1f 20 03 d5                  	nop
     b8c: 00 00 00 94                  	bl	#0 <main+0xb8c>
     b90: d5 ff ff 17                  	b	#-172 <main+0xae4>
     b94: fd 7b 51 a9                  	ldp	x29, x30, [sp, #272]
     b98: f4 4f 50 a9                  	ldp	x20, x19, [sp, #256]
     b9c: e8 03 1f 2a                  	mov	w8, wzr
     ba0: ff 83 04 91                  	add	sp, sp, #288
     ba4: c0 03 5f d6                  	ret

Disassembly of section .text.makea:

0000000000000000 makea:
       0: ff c3 03 d1                  	sub	sp, sp, #240
       4: f4 4f 0d a9                  	stp	x20, x19, [sp, #208]
       8: fd 7b 0e a9                  	stp	x29, x30, [sp, #224]
       c: fd 83 03 91                  	add	x29, sp, #224
      10: 28 00 80 52                  	mov	w8, #1
      14: a1 03 3d 29                  	stp	w1, w0, [x29, #-24]
      18: a3 8b 3d a9                  	stp	x3, x2, [x29, #-40]
      1c: a4 03 1d f8                  	stur	x4, [x29, #-48]
      20: a5 c3 1c b8                  	stur	w5, [x29, #-52]
      24: a8 c3 1b b8                  	stur	w8, [x29, #-68]
      28: a8 c3 5b b8                  	ldur	w8, [x29, #-68]
      2c: b0 c3 5e b8                  	ldur	w16, [x29, #-20]
      30: 08 79 1f 53                  	lsl	w8, w8, #1
      34: 1f 01 10 6b                  	cmp	w8, w16
      38: a8 c3 1b b8                  	stur	w8, [x29, #-68]
      3c: 6b ff ff 54                  	b.lt	#-20 <makea+0x28>
      40: e8 03 1f 2a                  	mov	w8, wzr
      44: bf 83 1c b8                  	stur	wzr, [x29, #-56]
      48: 04 00 00 14                  	b	#16 <makea+0x58>
      4c: a8 83 5c b8                  	ldur	w8, [x29, #-56]
      50: 08 05 00 11                  	add	w8, w8, #1
      54: a8 83 1c b8                  	stur	w8, [x29, #-56]
      58: a8 83 5c b8                  	ldur	w8, [x29, #-56]
      5c: b0 c3 5e b8                  	ldur	w16, [x29, #-20]
      60: 1f 01 10 6b                  	cmp	w8, w16
      64: 0a 06 00 54                  	b.ge	#192 <makea+0x124>
      68: a0 c3 5e b8                  	ldur	w0, [x29, #-20]
      6c: a2 c3 5b b8                  	ldur	w2, [x29, #-68]
      70: f3 c3 00 91                  	add	x19, sp, #48
      74: f4 c3 01 91                  	add	x20, sp, #112
      78: e1 00 80 52                  	mov	w1, #7
      7c: e3 03 13 aa                  	mov	x3, x19
      80: e4 03 14 aa                  	mov	x4, x20
      84: a1 03 1c b8                  	stur	w1, [x29, #-64]
      88: 1f 20 03 d5                  	nop
      8c: 00 00 00 94                  	bl	#0 <makea+0x8c>
      90: a8 83 5c b8                  	ldur	w8, [x29, #-56]
      94: a0 c3 5e b8                  	ldur	w0, [x29, #-20]
      98: a3 03 01 d1                  	sub	x3, x29, #64
      9c: 00 10 6c 1e                  	fmov	d0, #0.50000000
      a0: 04 05 00 11                  	add	w4, w8, #1
      a4: e1 03 13 aa                  	mov	x1, x19
      a8: e2 03 14 aa                  	mov	x2, x20
      ac: 1f 20 03 d5                  	nop
      b0: 00 00 00 94                  	bl	#0 <makea+0xb0>
      b4: a8 03 5c b8                  	ldur	w8, [x29, #-64]
      b8: b0 17 40 f9                  	ldr	x16, [x29, #40]
      bc: b1 83 9c b8                  	ldursw	x17, [x29, #-56]
      c0: 08 7a 31 b8                  	str	w8, [x16, x17, lsl #2]
      c4: e8 03 1f 2a                  	mov	w8, wzr
      c8: bf 43 1c b8                  	stur	wzr, [x29, #-60]
      cc: b0 23 78 29                  	ldp	w16, w8, [x29, #-64]
      d0: 1f 01 10 6b                  	cmp	w8, w16
      d4: ca fb ff 54                  	b.ge	#-136 <makea+0x4c>
      d8: a8 cb 78 69                  	ldpsw	x8, x18, [x29, #-60]
      dc: f0 c3 01 91                  	add	x16, sp, #112
      e0: b1 1b 40 f9                  	ldr	x17, [x29, #48]
      e4: 08 f5 7e d3                  	lsl	x8, x8, #2
      e8: 10 6a 68 b8                  	ldr	w16, [x16, x8]
      ec: 31 16 12 8b                  	add	x17, x17, x18, lsl #5
      f0: 10 06 00 51                  	sub	w16, w16, #1
      f4: 30 6a 28 b8                  	str	w16, [x17, x8]
      f8: a8 c7 78 69                  	ldpsw	x8, x17, [x29, #-60]
      fc: f0 c3 00 91                  	add	x16, sp, #48
     100: 08 f1 7d d3                  	lsl	x8, x8, #3
     104: 00 6a 68 fc                  	ldr	d0, [x16, x8]
     108: b0 1f 40 f9                  	ldr	x16, [x29, #56]
     10c: 10 1a 11 8b                  	add	x16, x16, x17, lsl #6
     110: 00 6a 28 fc                  	str	d0, [x16, x8]
     114: a8 43 5c b8                  	ldur	w8, [x29, #-60]
     118: 08 05 00 11                  	add	w8, w8, #1
     11c: a8 43 1c b8                  	stur	w8, [x29, #-60]
     120: eb ff ff 17                  	b	#-84 <makea+0xcc>
     124: a8 cb 43 a9                  	ldp	x8, x18, [x29, #56]
     128: a0 83 c2 3c                  	ldur	q0, [x29, #40]
     12c: e5 03 00 91                  	mov	x5, sp
     130: b0 c3 5c b8                  	ldur	w16, [x29, #-52]
     134: b1 13 40 b9                  	ldr	w17, [x29, #16]
     138: a8 08 00 f9                  	str	x8, [x5, #16]
     13c: 08 00 00 90                  	adrp	x8, #0
     140: a1 83 7d a9                  	ldp	x1, x0, [x29, #-40]
     144: a2 03 5d f8                  	ldur	x2, [x29, #-48]
     148: a4 0f 7d 29                  	ldp	w4, w3, [x29, #-24]
     14c: a0 00 80 3d                  	str	q0, [x5]
     150: 00 01 40 fd                  	ldr	d0, [x8]
     154: b2 14 00 f9                  	str	x18, [x5, #40]
     158: b1 20 00 b9                  	str	w17, [x5, #32]
     15c: b0 18 00 b9                  	str	w16, [x5, #24]
     160: e5 00 80 52                  	mov	w5, #7
     164: 01 90 64 1e                  	fmov	d1, #10.00000000
     168: 1f 20 03 d5                  	nop
     16c: 1f 20 03 d5                  	nop
     170: 1f 20 03 d5                  	nop
     174: 1f 20 03 d5                  	nop
     178: 00 00 00 94                  	bl	#0 <makea+0x178>
     17c: fd 7b 4e a9                  	ldp	x29, x30, [sp, #224]
     180: f4 4f 4d a9                  	ldp	x20, x19, [sp, #208]
     184: ff c3 03 91                  	add	sp, sp, #240
     188: c0 03 5f d6                  	ret

Disassembly of section .text.conj_grad:

0000000000000000 conj_grad:
       0: ff 03 02 d1                  	sub	sp, sp, #128
       4: fd 7b 07 a9                  	stp	x29, x30, [sp, #112]
       8: fd c3 01 91                  	add	x29, sp, #112
       c: 28 03 80 52                  	mov	w8, #25
      10: e8 33 00 b9                  	str	w8, [sp, #48]
      14: e8 03 1f aa                  	mov	x8, xzr
      18: a1 03 3f a9                  	stp	x1, x0, [x29, #-16]
      1c: a3 0b 3e a9                  	stp	x3, x2, [x29, #-32]
      20: a5 13 3d a9                  	stp	x5, x4, [x29, #-48]
      24: ff 0f 00 f9                  	str	xzr, [sp, #24]
      28: e8 03 1f 2a                  	mov	w8, wzr
      2c: bf c3 1c b8                  	stur	wzr, [x29, #-52]
      30: 10 00 00 90                  	adrp	x16, #0
      34: 10 02 40 b9                  	ldr	w16, [x16]
      38: a8 c3 5c b8                  	ldur	w8, [x29, #-52]
      3c: 10 06 00 11                  	add	w16, w16, #1
      40: 1f 01 10 6b                  	cmp	w8, w16
      44: 0a 03 00 54                  	b.ge	#96 <conj_grad+0xa4>
      48: a8 0b 40 f9                  	ldr	x8, [x29, #16]
      4c: b0 c3 9c b8                  	ldursw	x16, [x29, #-52]
      50: f1 03 1f aa                  	mov	x17, xzr
      54: 1f 79 30 f8                  	str	xzr, [x8, x16, lsl #3]
      58: a8 03 5e f8                  	ldur	x8, [x29, #-32]
      5c: b0 c3 9c b8                  	ldursw	x16, [x29, #-52]
      60: 1f 79 30 f8                  	str	xzr, [x8, x16, lsl #3]
      64: b0 c3 9c b8                  	ldursw	x16, [x29, #-52]
      68: a8 83 5e f8                  	ldur	x8, [x29, #-24]
      6c: 10 f2 7d d3                  	lsl	x16, x16, #3
      70: 00 69 70 fc                  	ldr	d0, [x8, x16]
      74: a8 0f 40 f9                  	ldr	x8, [x29, #24]
      78: 00 69 30 fc                  	str	d0, [x8, x16]
      7c: b0 c3 9c b8                  	ldursw	x16, [x29, #-52]
      80: a8 0f 40 f9                  	ldr	x8, [x29, #24]
      84: 10 f2 7d d3                  	lsl	x16, x16, #3
      88: 00 69 70 fc                  	ldr	d0, [x8, x16]
      8c: a8 03 5d f8                  	ldur	x8, [x29, #-48]
      90: 00 69 30 fc                  	str	d0, [x8, x16]
      94: a8 c3 5c b8                  	ldur	w8, [x29, #-52]
      98: 08 05 00 11                  	add	w8, w8, #1
      9c: a8 c3 1c b8                  	stur	w8, [x29, #-52]
      a0: e4 ff ff 17                  	b	#-112 <conj_grad+0x30>
      a4: e8 03 1f 2a                  	mov	w8, wzr
      a8: bf c3 1c b8                  	stur	wzr, [x29, #-52]
      ac: 10 00 00 90                  	adrp	x16, #0
      b0: 11 00 00 90                  	adrp	x17, #0
      b4: 10 02 40 b9                  	ldr	w16, [x16]
      b8: 31 02 40 b9                  	ldr	w17, [x17]
      bc: a8 c3 5c b8                  	ldur	w8, [x29, #-52]
      c0: 10 02 11 4b                  	sub	w16, w16, w17
      c4: 10 06 00 11                  	add	w16, w16, #1
      c8: 1f 01 10 6b                  	cmp	w8, w16
      cc: 8a 01 00 54                  	b.ge	#48 <conj_grad+0xfc>
      d0: a8 0f 40 f9                  	ldr	x8, [x29, #24]
      d4: b0 c3 9c b8                  	ldursw	x16, [x29, #-52]
      d8: e0 0f 40 fd                  	ldr	d0, [sp, #24]
      dc: 01 79 70 fc                  	ldr	d1, [x8, x16, lsl #3]
      e0: 08 06 00 11                  	add	w8, w16, #1
      e4: f1 03 10 2a                  	mov	w17, w16
      e8: a8 c3 1c b8                  	stur	w8, [x29, #-52]
      ec: 21 08 61 1e                  	fmul	d1, d1, d1
      f0: 00 28 61 1e                  	fadd	d0, d0, d1
      f4: e0 0f 00 fd                  	str	d0, [sp, #24]
      f8: ed ff ff 17                  	b	#-76 <conj_grad+0xac>
      fc: 28 00 80 52                  	mov	w8, #1
     100: 03 00 00 14                  	b	#12 <conj_grad+0x10c>
     104: e8 37 40 b9                  	ldr	w8, [sp, #52]
     108: 08 05 00 11                  	add	w8, w8, #1
     10c: f0 33 40 b9                  	ldr	w16, [sp, #48]
     110: e8 37 00 b9                  	str	w8, [sp, #52]
     114: e8 03 08 2a                  	mov	w8, w8
     118: 1f 01 10 6b                  	cmp	w8, w16
     11c: 6c 14 00 54                  	b.gt	#652 <conj_grad+0x3a8>
     120: e8 03 1f 2a                  	mov	w8, wzr
     124: bf c3 1c b8                  	stur	wzr, [x29, #-52]
     128: 07 00 00 14                  	b	#28 <conj_grad+0x144>
     12c: a8 0b 40 f9                  	ldr	x8, [x29, #16]
     130: b0 c3 9c b8                  	ldursw	x16, [x29, #-52]
     134: 00 79 30 fc                  	str	d0, [x8, x16, lsl #3]
     138: a8 c3 5c b8                  	ldur	w8, [x29, #-52]
     13c: 08 05 00 11                  	add	w8, w8, #1
     140: a8 c3 1c b8                  	stur	w8, [x29, #-52]
     144: 10 00 00 90                  	adrp	x16, #0
     148: 11 00 00 90                  	adrp	x17, #0
     14c: 10 02 40 b9                  	ldr	w16, [x16]
     150: 31 02 40 b9                  	ldr	w17, [x17]
     154: a8 c3 5c b8                  	ldur	w8, [x29, #-52]
     158: 10 02 11 4b                  	sub	w16, w16, w17
     15c: 10 06 00 11                  	add	w16, w16, #1
     160: 1f 01 10 6b                  	cmp	w8, w16
     164: 8a 03 00 54                  	b.ge	#112 <conj_grad+0x1d4>
     168: e8 03 1f aa                  	mov	x8, xzr
     16c: a8 03 5f f8                  	ldur	x8, [x29, #-16]
     170: b0 c3 9c b8                  	ldursw	x16, [x29, #-52]
     174: ff 13 00 f9                  	str	xzr, [sp, #32]
     178: 08 79 70 b8                  	ldr	w8, [x8, x16, lsl #2]
     17c: b0 03 5f f8                  	ldur	x16, [x29, #-16]
     180: b1 c3 9c b8                  	ldursw	x17, [x29, #-52]
     184: e8 3b 00 b9                  	str	w8, [sp, #56]
     188: e0 13 40 fd                  	ldr	d0, [sp, #32]
     18c: e8 03 08 2a                  	mov	w8, w8
     190: 10 0a 11 8b                  	add	x16, x16, x17, lsl #2
     194: 10 06 40 b9                  	ldr	w16, [x16, #4]
     198: 1f 01 10 6b                  	cmp	w8, w16
     19c: 8a fc ff 54                  	b.ge	#-112 <conj_grad+0x12c>
     1a0: a8 83 5d f8                  	ldur	x8, [x29, #-40]
     1a4: f0 3b 80 b9                  	ldrsw	x16, [sp, #56]
     1a8: b2 83 5f f8                  	ldur	x18, [x29, #-8]
     1ac: f1 03 10 2a                  	mov	w17, w16
     1b0: 01 79 70 fc                  	ldr	d1, [x8, x16, lsl #3]
     1b4: a8 03 5d f8                  	ldur	x8, [x29, #-48]
     1b8: 50 7a b0 b8                  	ldrsw	x16, [x18, x16, lsl #2]
     1bc: 02 79 70 fc                  	ldr	d2, [x8, x16, lsl #3]
     1c0: 28 06 00 11                  	add	w8, w17, #1
     1c4: 21 08 62 1e                  	fmul	d1, d1, d2
     1c8: 00 28 61 1e                  	fadd	d0, d0, d1
     1cc: e0 13 00 fd                  	str	d0, [sp, #32]
     1d0: eb ff ff 17                  	b	#-84 <conj_grad+0x17c>
     1d4: e8 03 1f aa                  	mov	x8, xzr
     1d8: ff 17 00 f9                  	str	xzr, [sp, #40]
     1dc: e8 03 1f 2a                  	mov	w8, wzr
     1e0: bf c3 1c b8                  	stur	wzr, [x29, #-52]
     1e4: 10 00 00 90                  	adrp	x16, #0
     1e8: 11 00 00 90                  	adrp	x17, #0
     1ec: 10 02 40 b9                  	ldr	w16, [x16]
     1f0: 31 02 40 b9                  	ldr	w17, [x17]
     1f4: a8 c3 5c b8                  	ldur	w8, [x29, #-52]
     1f8: 10 02 11 4b                  	sub	w16, w16, w17
     1fc: 10 06 00 11                  	add	w16, w16, #1
     200: 1f 01 10 6b                  	cmp	w8, w16
     204: ea 01 00 54                  	b.ge	#60 <conj_grad+0x240>
     208: b0 c3 9c b8                  	ldursw	x16, [x29, #-52]
     20c: a8 03 5d f8                  	ldur	x8, [x29, #-48]
     210: e0 17 40 fd                  	ldr	d0, [sp, #40]
     214: f1 03 10 2a                  	mov	w17, w16
     218: 10 f2 7d d3                  	lsl	x16, x16, #3
     21c: 01 69 70 fc                  	ldr	d1, [x8, x16]
     220: a8 0b 40 f9                  	ldr	x8, [x29, #16]
     224: 02 69 70 fc                  	ldr	d2, [x8, x16]
     228: 28 06 00 11                  	add	w8, w17, #1
     22c: a8 c3 1c b8                  	stur	w8, [x29, #-52]
     230: 21 08 62 1e                  	fmul	d1, d1, d2
     234: 00 28 61 1e                  	fadd	d0, d0, d1
     238: e0 17 00 fd                  	str	d0, [sp, #40]
     23c: ea ff ff 17                  	b	#-88 <conj_grad+0x1e4>
     240: e0 0f 40 fd                  	ldr	d0, [sp, #24]
     244: e1 17 40 fd                  	ldr	d1, [sp, #40]
     248: e8 03 1f aa                  	mov	x8, xzr
     24c: ff 0f 00 f9                  	str	xzr, [sp, #24]
     250: e8 03 1f 2a                  	mov	w8, wzr
     254: 01 18 61 1e                  	fdiv	d1, d0, d1
     258: e1 83 00 6d                  	stp	d1, d0, [sp, #8]
     25c: bf c3 1c b8                  	stur	wzr, [x29, #-52]
     260: 10 00 00 90                  	adrp	x16, #0
     264: 11 00 00 90                  	adrp	x17, #0
     268: 10 02 40 b9                  	ldr	w16, [x16]
     26c: 31 02 40 b9                  	ldr	w17, [x17]
     270: a8 c3 5c b8                  	ldur	w8, [x29, #-52]
     274: 10 02 11 4b                  	sub	w16, w16, w17
     278: 10 06 00 11                  	add	w16, w16, #1
     27c: 1f 01 10 6b                  	cmp	w8, w16
     280: 0a 03 00 54                  	b.ge	#96 <conj_grad+0x2e0>
     284: b0 c3 9c b8                  	ldursw	x16, [x29, #-52]
     288: b1 03 5d f8                  	ldur	x17, [x29, #-48]
     28c: a8 03 5e f8                  	ldur	x8, [x29, #-32]
     290: e1 07 40 fd                  	ldr	d1, [sp, #8]
     294: 10 f2 7d d3                  	lsl	x16, x16, #3
     298: 22 6a 70 fc                  	ldr	d2, [x17, x16]
     29c: 00 69 70 fc                  	ldr	d0, [x8, x16]
     2a0: 21 08 62 1e                  	fmul	d1, d1, d2
     2a4: 00 28 61 1e                  	fadd	d0, d0, d1
     2a8: 00 69 30 fc                  	str	d0, [x8, x16]
     2ac: b0 c3 9c b8                  	ldursw	x16, [x29, #-52]
     2b0: b1 23 41 a9                  	ldp	x17, x8, [x29, #16]
     2b4: e1 07 40 fd                  	ldr	d1, [sp, #8]
     2b8: 10 f2 7d d3                  	lsl	x16, x16, #3
     2bc: 22 6a 70 fc                  	ldr	d2, [x17, x16]
     2c0: 00 69 70 fc                  	ldr	d0, [x8, x16]
     2c4: 21 08 62 1e                  	fmul	d1, d1, d2
     2c8: 00 38 61 1e                  	fsub	d0, d0, d1
     2cc: 00 69 30 fc                  	str	d0, [x8, x16]
     2d0: a8 c3 5c b8                  	ldur	w8, [x29, #-52]
     2d4: 08 05 00 11                  	add	w8, w8, #1
     2d8: a8 c3 1c b8                  	stur	w8, [x29, #-52]
     2dc: e1 ff ff 17                  	b	#-124 <conj_grad+0x260>
     2e0: e8 03 1f 2a                  	mov	w8, wzr
     2e4: bf c3 1c b8                  	stur	wzr, [x29, #-52]
     2e8: 10 00 00 90                  	adrp	x16, #0
     2ec: 11 00 00 90                  	adrp	x17, #0
     2f0: 10 02 40 b9                  	ldr	w16, [x16]
     2f4: 31 02 40 b9                  	ldr	w17, [x17]
     2f8: a8 c3 5c b8                  	ldur	w8, [x29, #-52]
     2fc: e0 0f 40 fd                  	ldr	d0, [sp, #24]
     300: 10 02 11 4b                  	sub	w16, w16, w17
     304: 10 06 00 11                  	add	w16, w16, #1
     308: 1f 01 10 6b                  	cmp	w8, w16
     30c: 6a 01 00 54                  	b.ge	#44 <conj_grad+0x338>
     310: a8 0f 40 f9                  	ldr	x8, [x29, #24]
     314: b0 c3 9c b8                  	ldursw	x16, [x29, #-52]
     318: 01 79 70 fc                  	ldr	d1, [x8, x16, lsl #3]
     31c: 08 06 00 11                  	add	w8, w16, #1
     320: f1 03 10 2a                  	mov	w17, w16
     324: a8 c3 1c b8                  	stur	w8, [x29, #-52]
     328: 21 08 61 1e                  	fmul	d1, d1, d1
     32c: 00 28 61 1e                  	fadd	d0, d0, d1
     330: e0 0f 00 fd                  	str	d0, [sp, #24]
     334: ed ff ff 17                  	b	#-76 <conj_grad+0x2e8>
     338: e1 0b 40 fd                  	ldr	d1, [sp, #16]
     33c: e8 03 1f 2a                  	mov	w8, wzr
     340: bf c3 1c b8                  	stur	wzr, [x29, #-52]
     344: 00 18 61 1e                  	fdiv	d0, d0, d1
     348: e0 03 00 fd                  	str	d0, [sp]
     34c: 10 00 00 90                  	adrp	x16, #0
     350: 11 00 00 90                  	adrp	x17, #0
     354: 10 02 40 b9                  	ldr	w16, [x16]
     358: 31 02 40 b9                  	ldr	w17, [x17]
     35c: a8 c3 5c b8                  	ldur	w8, [x29, #-52]
     360: 10 02 11 4b                  	sub	w16, w16, w17
     364: 10 06 00 11                  	add	w16, w16, #1
     368: 1f 01 10 6b                  	cmp	w8, w16
     36c: ca ec ff 54                  	b.ge	#-616 <conj_grad+0x104>
     370: b0 c3 9c b8                  	ldursw	x16, [x29, #-52]
     374: a8 0f 40 f9                  	ldr	x8, [x29, #24]
     378: e1 03 40 fd                  	ldr	d1, [sp]
     37c: 10 f2 7d d3                  	lsl	x16, x16, #3
     380: 00 69 70 fc                  	ldr	d0, [x8, x16]
     384: a8 03 5d f8                  	ldur	x8, [x29, #-48]
     388: 02 69 70 fc                  	ldr	d2, [x8, x16]
     38c: 21 08 62 1e                  	fmul	d1, d1, d2
     390: 00 28 61 1e                  	fadd	d0, d0, d1
     394: 00 69 30 fc                  	str	d0, [x8, x16]
     398: a8 c3 5c b8                  	ldur	w8, [x29, #-52]
     39c: 08 05 00 11                  	add	w8, w8, #1
     3a0: a8 c3 1c b8                  	stur	w8, [x29, #-52]
     3a4: ea ff ff 17                  	b	#-88 <conj_grad+0x34c>
     3a8: e8 03 1f aa                  	mov	x8, xzr
     3ac: ff 13 00 f9                  	str	xzr, [sp, #32]
     3b0: e8 03 1f 2a                  	mov	w8, wzr
     3b4: bf c3 1c b8                  	stur	wzr, [x29, #-52]
     3b8: 07 00 00 14                  	b	#28 <conj_grad+0x3d4>
     3bc: a8 0f 40 f9                  	ldr	x8, [x29, #24]
     3c0: b0 c3 9c b8                  	ldursw	x16, [x29, #-52]
     3c4: 00 79 30 fc                  	str	d0, [x8, x16, lsl #3]
     3c8: a8 c3 5c b8                  	ldur	w8, [x29, #-52]
     3cc: 08 05 00 11                  	add	w8, w8, #1
     3d0: a8 c3 1c b8                  	stur	w8, [x29, #-52]
     3d4: 10 00 00 90                  	adrp	x16, #0
     3d8: 11 00 00 90                  	adrp	x17, #0
     3dc: 10 02 40 b9                  	ldr	w16, [x16]
     3e0: 31 02 40 b9                  	ldr	w17, [x17]
     3e4: a8 c3 5c b8                  	ldur	w8, [x29, #-52]
     3e8: 10 02 11 4b                  	sub	w16, w16, w17
     3ec: 10 06 00 11                  	add	w16, w16, #1
     3f0: 1f 01 10 6b                  	cmp	w8, w16
     3f4: 8a 03 00 54                  	b.ge	#112 <conj_grad+0x464>
     3f8: e8 03 1f aa                  	mov	x8, xzr
     3fc: a8 03 5f f8                  	ldur	x8, [x29, #-16]
     400: b0 c3 9c b8                  	ldursw	x16, [x29, #-52]
     404: ff 17 00 f9                  	str	xzr, [sp, #40]
     408: 08 79 70 b8                  	ldr	w8, [x8, x16, lsl #2]
     40c: b0 03 5f f8                  	ldur	x16, [x29, #-16]
     410: b1 c3 9c b8                  	ldursw	x17, [x29, #-52]
     414: e8 3b 00 b9                  	str	w8, [sp, #56]
     418: e0 17 40 fd                  	ldr	d0, [sp, #40]
     41c: e8 03 08 2a                  	mov	w8, w8
     420: 10 0a 11 8b                  	add	x16, x16, x17, lsl #2
     424: 10 06 40 b9                  	ldr	w16, [x16, #4]
     428: 1f 01 10 6b                  	cmp	w8, w16
     42c: 8a fc ff 54                  	b.ge	#-112 <conj_grad+0x3bc>
     430: a8 83 5d f8                  	ldur	x8, [x29, #-40]
     434: f0 3b 80 b9                  	ldrsw	x16, [sp, #56]
     438: b2 83 5f f8                  	ldur	x18, [x29, #-8]
     43c: f1 03 10 2a                  	mov	w17, w16
     440: 01 79 70 fc                  	ldr	d1, [x8, x16, lsl #3]
     444: a8 03 5e f8                  	ldur	x8, [x29, #-32]
     448: 50 7a b0 b8                  	ldrsw	x16, [x18, x16, lsl #2]
     44c: 02 79 70 fc                  	ldr	d2, [x8, x16, lsl #3]
     450: 28 06 00 11                  	add	w8, w17, #1
     454: 21 08 62 1e                  	fmul	d1, d1, d2
     458: 00 28 61 1e                  	fadd	d0, d0, d1
     45c: e0 17 00 fd                  	str	d0, [sp, #40]
     460: eb ff ff 17                  	b	#-84 <conj_grad+0x40c>
     464: e8 03 1f 2a                  	mov	w8, wzr
     468: bf c3 1c b8                  	stur	wzr, [x29, #-52]
     46c: 10 00 00 90                  	adrp	x16, #0
     470: 11 00 00 90                  	adrp	x17, #0
     474: 10 02 40 b9                  	ldr	w16, [x16]
     478: 31 02 40 b9                  	ldr	w17, [x17]
     47c: a8 c3 5c b8                  	ldur	w8, [x29, #-52]
     480: 10 02 11 4b                  	sub	w16, w16, w17
     484: 10 06 00 11                  	add	w16, w16, #1
     488: 1f 01 10 6b                  	cmp	w8, w16
     48c: 2a 02 00 54                  	b.ge	#68 <conj_grad+0x4d0>
     490: b0 c3 9c b8                  	ldursw	x16, [x29, #-52]
     494: a8 83 5e f8                  	ldur	x8, [x29, #-24]
     498: f1 03 10 2a                  	mov	w17, w16
     49c: 10 f2 7d d3                  	lsl	x16, x16, #3
     4a0: 00 69 70 fc                  	ldr	d0, [x8, x16]
     4a4: a8 0f 40 f9                  	ldr	x8, [x29, #24]
     4a8: 01 69 70 fc                  	ldr	d1, [x8, x16]
     4ac: 28 06 00 11                  	add	w8, w17, #1
     4b0: a8 c3 1c b8                  	stur	w8, [x29, #-52]
     4b4: 00 38 61 1e                  	fsub	d0, d0, d1
     4b8: e1 13 40 fd                  	ldr	d1, [sp, #32]
     4bc: e0 17 00 fd                  	str	d0, [sp, #40]
     4c0: 00 08 60 1e                  	fmul	d0, d0, d0
     4c4: 20 28 60 1e                  	fadd	d0, d1, d0
     4c8: e0 13 00 fd                  	str	d0, [sp, #32]
     4cc: e8 ff ff 17                  	b	#-96 <conj_grad+0x46c>
     4d0: e0 13 40 fd                  	ldr	d0, [sp, #32]
     4d4: 01 c0 61 1e                  	fsqrt	d1, d0
     4d8: 20 20 61 1e                  	fcmp	d1, d1
     4dc: 67 00 00 54                  	b.vc	#12 <conj_grad+0x4e8>
     4e0: 00 00 00 94                  	bl	#0 <conj_grad+0x4e0>
     4e4: 01 1c a0 4e                  	mov	v1.16b, v0.16b
     4e8: a8 13 40 f9                  	ldr	x8, [x29, #32]
     4ec: 01 01 00 fd                  	str	d1, [x8]
     4f0: fd 7b 47 a9                  	ldp	x29, x30, [sp, #112]
     4f4: ff 03 02 91                  	add	sp, sp, #128
     4f8: c0 03 5f d6                  	ret

Disassembly of section .text.sprnvc:

0000000000000000 sprnvc:
       0: ff c3 01 d1                  	sub	sp, sp, #112
       4: f4 4f 05 a9                  	stp	x20, x19, [sp, #80]
       8: fd 7b 06 a9                  	stp	x29, x30, [sp, #96]
       c: fd 83 01 91                  	add	x29, sp, #96
      10: 13 00 00 90                  	adrp	x19, #0
      14: 14 00 00 90                  	adrp	x20, #0
      18: 73 02 00 91                  	add	x19, x19, #0
      1c: a1 03 3d 29                  	stp	w1, w0, [x29, #-24]
      20: a2 43 1e b8                  	stur	w2, [x29, #-28]
      24: a3 83 1d f8                  	stur	x3, [x29, #-40]
      28: e4 1b 00 f9                  	str	x4, [sp, #48]
      2c: e8 03 1f 2a                  	mov	w8, wzr
      30: ff 2f 00 b9                  	str	wzr, [sp, #44]
      34: e8 2f 40 b9                  	ldr	w8, [sp, #44]
      38: b0 83 5e b8                  	ldur	w16, [x29, #-24]
      3c: 1f 01 10 6b                  	cmp	w8, w16
      40: 6a 06 00 54                  	b.ge	#204 <sprnvc+0x10c>
      44: 80 02 40 fd                  	ldr	d0, [x20]
      48: e0 03 13 aa                  	mov	x0, x19
      4c: 00 00 00 94                  	bl	#0 <sprnvc+0x4c>
      50: e0 0f 00 fd                  	str	d0, [sp, #24]
      54: 80 02 40 fd                  	ldr	d0, [x20]
      58: e0 03 13 aa                  	mov	x0, x19
      5c: 1f 20 03 d5                  	nop
      60: 1f 20 03 d5                  	nop
      64: 00 00 00 94                  	bl	#0 <sprnvc+0x64>
      68: a0 43 5e b8                  	ldur	w0, [x29, #-28]
      6c: e0 0b 00 fd                  	str	d0, [sp, #16]
      70: 1f 20 03 d5                  	nop
      74: 00 00 00 94                  	bl	#0 <sprnvc+0x74>
      78: b0 c3 5e b8                  	ldur	w16, [x29, #-20]
      7c: 08 05 00 11                  	add	w8, w8, #1
      80: e8 27 00 b9                  	str	w8, [sp, #36]
      84: 1f 01 10 6b                  	cmp	w8, w16
      88: 6c fd ff 54                  	b.gt	#-84 <sprnvc+0x34>
      8c: e8 03 1f 2a                  	mov	w8, wzr
      90: ff 0f 00 b9                  	str	wzr, [sp, #12]
      94: ff 2b 00 b9                  	str	wzr, [sp, #40]
      98: e8 43 45 29                  	ldp	w8, w16, [sp, #40]
      9c: 1f 01 10 6b                  	cmp	w8, w16
      a0: aa 01 00 54                  	b.ge	#52 <sprnvc+0xd4>
      a4: e8 1b 40 f9                  	ldr	x8, [sp, #48]
      a8: f0 2b 80 b9                  	ldrsw	x16, [sp, #40]
      ac: 08 79 70 b8                  	ldr	w8, [x8, x16, lsl #2]
      b0: f0 27 40 b9                  	ldr	w16, [sp, #36]
      b4: 1f 01 10 6b                  	cmp	w8, w16
      b8: a0 00 00 54                  	b.eq	#20 <sprnvc+0xcc>
      bc: e8 2b 40 b9                  	ldr	w8, [sp, #40]
      c0: 08 05 00 11                  	add	w8, w8, #1
      c4: e8 2b 00 b9                  	str	w8, [sp, #40]
      c8: f4 ff ff 17                  	b	#-48 <sprnvc+0x98>
      cc: 28 00 80 52                  	mov	w8, #1
      d0: e8 0f 00 b9                  	str	w8, [sp, #12]
      d4: e8 0f 40 b9                  	ldr	w8, [sp, #12]
      d8: e8 fa ff 35                  	cbnz	w8, #-164 <sprnvc+0x34>
      dc: e0 0f 40 fd                  	ldr	d0, [sp, #24]
      e0: a8 83 5d f8                  	ldur	x8, [x29, #-40]
      e4: f0 2f 80 b9                  	ldrsw	x16, [sp, #44]
      e8: 00 79 30 fc                  	str	d0, [x8, x16, lsl #3]
      ec: e8 27 40 b9                  	ldr	w8, [sp, #36]
      f0: f0 1b 40 f9                  	ldr	x16, [sp, #48]
      f4: f1 2f 80 b9                  	ldrsw	x17, [sp, #44]
      f8: 08 7a 31 b8                  	str	w8, [x16, x17, lsl #2]
      fc: e8 2f 40 b9                  	ldr	w8, [sp, #44]
     100: 08 05 00 11                  	add	w8, w8, #1
     104: e8 2f 00 b9                  	str	w8, [sp, #44]
     108: cb ff ff 17                  	b	#-212 <sprnvc+0x34>
     10c: fd 7b 46 a9                  	ldp	x29, x30, [sp, #96]
     110: f4 4f 45 a9                  	ldp	x20, x19, [sp, #80]
     114: ff c3 01 91                  	add	sp, sp, #112
     118: c0 03 5f d6                  	ret

Disassembly of section .text.vecset:

0000000000000000 vecset:
       0: ff 43 01 d1                  	sub	sp, sp, #80
       4: fd 7b 04 a9                  	stp	x29, x30, [sp, #64]
       8: fd 03 01 91                  	add	x29, sp, #64
       c: a0 c3 1f b8                  	stur	w0, [x29, #-4]
      10: a2 87 3e a9                  	stp	x2, x1, [x29, #-24]
      14: e3 13 00 f9                  	str	x3, [sp, #32]
      18: e4 1f 00 b9                  	str	w4, [sp, #28]
      1c: e0 0b 00 fd                  	str	d0, [sp, #16]
      20: e8 03 1f 2a                  	mov	w8, wzr
      24: ff 07 00 f9                  	str	xzr, [sp, #8]
      28: 04 00 00 14                  	b	#16 <vecset+0x38>
      2c: e8 0f 40 b9                  	ldr	w8, [sp, #12]
      30: 08 05 00 11                  	add	w8, w8, #1
      34: e8 0f 00 b9                  	str	w8, [sp, #12]
      38: f0 13 40 f9                  	ldr	x16, [sp, #32]
      3c: e8 0f 40 b9                  	ldr	w8, [sp, #12]
      40: 10 02 40 b9                  	ldr	w16, [x16]
      44: 1f 01 10 6b                  	cmp	w8, w16
      48: ca 01 00 54                  	b.ge	#56 <vecset+0x80>
      4c: a8 83 5e f8                  	ldur	x8, [x29, #-24]
      50: f0 0f 80 b9                  	ldrsw	x16, [sp, #12]
      54: 08 79 70 b8                  	ldr	w8, [x8, x16, lsl #2]
      58: f0 1f 40 b9                  	ldr	w16, [sp, #28]
      5c: 1f 01 10 6b                  	cmp	w8, w16
      60: 61 fe ff 54                  	b.ne	#-52 <vecset+0x2c>
      64: e0 0b 40 fd                  	ldr	d0, [sp, #16]
      68: a8 03 5f f8                  	ldur	x8, [x29, #-16]
      6c: f0 0f 80 b9                  	ldrsw	x16, [sp, #12]
      70: 00 79 30 fc                  	str	d0, [x8, x16, lsl #3]
      74: 28 00 80 52                  	mov	w8, #1
      78: e8 0b 00 b9                  	str	w8, [sp, #8]
      7c: ec ff ff 17                  	b	#-80 <vecset+0x2c>
      80: e8 0b 40 b9                  	ldr	w8, [sp, #8]
      84: e8 01 00 35                  	cbnz	w8, #60 <vecset+0xc0>
      88: f0 13 40 f9                  	ldr	x16, [sp, #32]
      8c: e0 0b 40 fd                  	ldr	d0, [sp, #16]
      90: a8 03 5f f8                  	ldur	x8, [x29, #-16]
      94: 10 02 80 b9                  	ldrsw	x16, [x16]
      98: 00 79 30 fc                  	str	d0, [x8, x16, lsl #3]
      9c: f1 13 40 f9                  	ldr	x17, [sp, #32]
      a0: e8 1f 40 b9                  	ldr	w8, [sp, #28]
      a4: b0 83 5e f8                  	ldur	x16, [x29, #-24]
      a8: 31 02 80 b9                  	ldrsw	x17, [x17]
      ac: 08 7a 31 b8                  	str	w8, [x16, x17, lsl #2]
      b0: e8 13 40 f9                  	ldr	x8, [sp, #32]
      b4: 10 01 40 b9                  	ldr	w16, [x8]
      b8: 10 06 00 11                  	add	w16, w16, #1
      bc: 10 01 00 b9                  	str	w16, [x8]
      c0: fd 7b 44 a9                  	ldp	x29, x30, [sp, #64]
      c4: ff 43 01 91                  	add	sp, sp, #80
      c8: c0 03 5f d6                  	ret

Disassembly of section .text.sparse:

0000000000000000 sparse:
       0: ff 83 02 d1                  	sub	sp, sp, #160
       4: fd 7b 09 a9                  	stp	x29, x30, [sp, #144]
       8: fd 43 02 91                  	add	x29, sp, #144
       c: a8 33 40 b9                  	ldr	w8, [x29, #48]
      10: b0 2b 40 b9                  	ldr	w16, [x29, #40]
      14: a1 03 3f a9                  	stp	x1, x0, [x29, #-16]
      18: a2 83 1e f8                  	stur	x2, [x29, #-24]
      1c: a4 0f 3c 29                  	stp	w4, w3, [x29, #-32]
      20: 08 01 10 4b                  	sub	w8, w8, w16
      24: 08 05 00 11                  	add	w8, w8, #1
      28: a5 c3 1d b8                  	stur	w5, [x29, #-36]
      2c: a1 83 3c 6d                  	stp	d1, d0, [x29, #-56]
      30: a8 43 1c b8                  	stur	w8, [x29, #-60]
      34: e8 03 1f 2a                  	mov	w8, wzr
      38: bf c3 1b b8                  	stur	wzr, [x29, #-68]
      3c: b0 43 5c b8                  	ldur	w16, [x29, #-60]
      40: a8 c3 5b b8                  	ldur	w8, [x29, #-68]
      44: 10 06 00 11                  	add	w16, w16, #1
      48: 1f 01 10 6b                  	cmp	w8, w16
      4c: 2a 01 00 54                  	b.ge	#36 <sparse+0x70>
      50: a8 83 5e f8                  	ldur	x8, [x29, #-24]
      54: b0 c3 9b b8                  	ldursw	x16, [x29, #-68]
      58: f1 03 1f 2a                  	mov	w17, wzr
      5c: 1f 79 30 b8                  	str	wzr, [x8, x16, lsl #2]
      60: a8 c3 5b b8                  	ldur	w8, [x29, #-68]
      64: 08 05 00 11                  	add	w8, w8, #1
      68: a8 c3 1b b8                  	stur	w8, [x29, #-68]
      6c: f4 ff ff 17                  	b	#-48 <sparse+0x3c>
      70: e8 03 1f 2a                  	mov	w8, wzr
      74: bf 03 1c b8                  	stur	wzr, [x29, #-64]
      78: 04 00 00 14                  	b	#16 <sparse+0x88>
      7c: a8 03 5c b8                  	ldur	w8, [x29, #-64]
      80: 08 05 00 11                  	add	w8, w8, #1
      84: a8 03 1c b8                  	stur	w8, [x29, #-64]
      88: a8 03 5c b8                  	ldur	w8, [x29, #-64]
      8c: b0 43 5e b8                  	ldur	w16, [x29, #-28]
      90: 1f 01 10 6b                  	cmp	w8, w16
      94: 4a 03 00 54                  	b.ge	#104 <sparse+0xfc>
      98: e8 03 1f 2a                  	mov	w8, wzr
      9c: ff 43 00 b9                  	str	wzr, [sp, #64]
      a0: b0 0b 40 f9                  	ldr	x16, [x29, #16]
      a4: b1 03 9c b8                  	ldursw	x17, [x29, #-64]
      a8: e8 43 40 b9                  	ldr	w8, [sp, #64]
      ac: 10 7a 71 b8                  	ldr	w16, [x16, x17, lsl #2]
      b0: 1f 01 10 6b                  	cmp	w8, w16
      b4: 4a fe ff 54                  	b.ge	#-56 <sparse+0x7c>
      b8: a0 23 41 a9                  	ldp	x0, x8, [x29, #16]
      bc: b0 03 9c b8                  	ldursw	x16, [x29, #-64]
      c0: f1 43 80 b9                  	ldrsw	x17, [sp, #64]
      c4: 08 15 10 8b                  	add	x8, x8, x16, lsl #5
      c8: 08 79 71 b8                  	ldr	w8, [x8, x17, lsl #2]
      cc: b1 83 5e f8                  	ldur	x17, [x29, #-24]
      d0: 08 05 00 11                  	add	w8, w8, #1
      d4: a8 c3 1b b8                  	stur	w8, [x29, #-68]
      d8: 10 78 70 b8                  	ldr	w16, [x0, x16, lsl #2]
      dc: 08 7d 7e 93                  	sbfiz	x8, x8, #2, #32
      e0: 32 6a 68 b8                  	ldr	w18, [x17, x8]
      e4: 50 02 10 0b                  	add	w16, w18, w16
      e8: 30 6a 28 b8                  	str	w16, [x17, x8]
      ec: e8 43 40 b9                  	ldr	w8, [sp, #64]
      f0: 08 05 00 11                  	add	w8, w8, #1
      f4: e8 43 00 b9                  	str	w8, [sp, #64]
      f8: ea ff ff 17                  	b	#-88 <sparse+0xa0>
      fc: a8 83 5e f8                  	ldur	x8, [x29, #-24]
     100: f0 03 1f 2a                  	mov	w16, wzr
     104: 1f 01 00 b9                  	str	wzr, [x8]
     108: 28 00 80 52                  	mov	w8, #1
     10c: a8 c3 1b b8                  	stur	w8, [x29, #-68]
     110: f0 03 08 2a                  	mov	w16, w8
     114: a8 43 5c b8                  	ldur	w8, [x29, #-60]
     118: 11 05 00 11                  	add	w17, w8, #1
     11c: a8 83 5e f8                  	ldur	x8, [x29, #-24]
     120: 1f 02 11 6b                  	cmp	w16, w17
     124: 8a 01 00 54                  	b.ge	#48 <sparse+0x154>
     128: b0 c3 9b b8                  	ldursw	x16, [x29, #-68]
     12c: b1 83 5e f8                  	ldur	x17, [x29, #-24]
     130: 10 f6 7e d3                  	lsl	x16, x16, #2
     134: 08 69 70 b8                  	ldr	w8, [x8, x16]
     138: 30 02 10 8b                  	add	x16, x17, x16
     13c: 11 c2 5f b8                  	ldur	w17, [x16, #-4]
     140: 08 01 11 0b                  	add	w8, w8, w17
     144: 08 02 00 b9                  	str	w8, [x16]
     148: a8 c3 5b b8                  	ldur	w8, [x29, #-68]
     14c: 08 05 00 11                  	add	w8, w8, #1
     150: ef ff ff 17                  	b	#-68 <sparse+0x10c>
     154: b0 43 9c b8                  	ldursw	x16, [x29, #-60]
     158: 08 79 70 b8                  	ldr	w8, [x8, x16, lsl #2]
     15c: b0 03 5e b8                  	ldur	w16, [x29, #-32]
     160: 08 05 00 51                  	sub	w8, w8, #1
     164: 1f 01 10 6b                  	cmp	w8, w16
     168: e8 43 00 b9                  	str	w8, [sp, #64]
     16c: ac 27 00 54                  	b.gt	#1268 <sparse+0x660>
     170: e8 03 1f 2a                  	mov	w8, wzr
     174: bf c3 1b b8                  	stur	wzr, [x29, #-68]
     178: 08 00 00 14                  	b	#32 <sparse+0x198>
     17c: a8 1f 40 f9                  	ldr	x8, [x29, #56]
     180: b0 c3 9b b8                  	ldursw	x16, [x29, #-68]
     184: f1 03 1f 2a                  	mov	w17, wzr
     188: 1f 79 30 b8                  	str	wzr, [x8, x16, lsl #2]
     18c: a8 c3 5b b8                  	ldur	w8, [x29, #-68]
     190: 08 05 00 11                  	add	w8, w8, #1
     194: a8 c3 1b b8                  	stur	w8, [x29, #-68]
     198: a8 c3 5b b8                  	ldur	w8, [x29, #-68]
     19c: b0 43 5c b8                  	ldur	w16, [x29, #-60]
     1a0: 1f 01 10 6b                  	cmp	w8, w16
     1a4: ea 02 00 54                  	b.ge	#92 <sparse+0x200>
     1a8: a8 83 5e f8                  	ldur	x8, [x29, #-24]
     1ac: b0 c3 9b b8                  	ldursw	x16, [x29, #-68]
     1b0: 08 79 70 b8                  	ldr	w8, [x8, x16, lsl #2]
     1b4: b0 83 5e f8                  	ldur	x16, [x29, #-24]
     1b8: b1 c3 9b b8                  	ldursw	x17, [x29, #-68]
     1bc: e8 3f 00 b9                  	str	w8, [sp, #60]
     1c0: e8 03 08 2a                  	mov	w8, w8
     1c4: 10 0a 11 8b                  	add	x16, x16, x17, lsl #2
     1c8: 10 06 40 b9                  	ldr	w16, [x16, #4]
     1cc: 1f 01 10 6b                  	cmp	w8, w16
     1d0: 6a fd ff 54                  	b.ge	#-84 <sparse+0x17c>
     1d4: a8 83 5f f8                  	ldur	x8, [x29, #-8]
     1d8: f0 3f 80 b9                  	ldrsw	x16, [sp, #60]
     1dc: f1 03 1f aa                  	mov	x17, xzr
     1e0: 11 00 80 12                  	mov	w17, #-1
     1e4: 1f 79 30 f8                  	str	xzr, [x8, x16, lsl #3]
     1e8: a8 03 5f f8                  	ldur	x8, [x29, #-16]
     1ec: f0 3f 80 b9                  	ldrsw	x16, [sp, #60]
     1f0: 11 79 30 b8                  	str	w17, [x8, x16, lsl #2]
     1f4: e8 3f 40 b9                  	ldr	w8, [sp, #60]
     1f8: 08 05 00 11                  	add	w8, w8, #1
     1fc: ee ff ff 17                  	b	#-72 <sparse+0x1b4>
     200: a1 43 5e bc                  	ldur	s1, [x29, #-28]
     204: a0 03 5d fc                  	ldur	d0, [x29, #-48]
     208: 21 a4 20 0f                  	sshll	v1.2d, v1.2s, #0
     20c: 02 10 6e 1e                  	fmov	d2, #1.00000000
     210: 21 d8 61 5e                  	scvtf	d1, d1
     214: 08 fe e7 d2                  	mov	x8, #4607182418800017408
     218: 41 18 61 1e                  	fdiv	d1, d2, d1
     21c: e8 17 00 f9                  	str	x8, [sp, #40]
     220: 00 00 00 94                  	bl	#0 <sparse+0x220>
     224: e0 0f 00 fd                  	str	d0, [sp, #24]
     228: e8 03 1f 2a                  	mov	w8, wzr
     22c: bf 03 1c b8                  	stur	wzr, [x29, #-64]
     230: 08 00 00 14                  	b	#32 <sparse+0x250>
     234: e0 17 40 fd                  	ldr	d0, [sp, #40]
     238: e1 0f 40 fd                  	ldr	d1, [sp, #24]
     23c: a8 03 5c b8                  	ldur	w8, [x29, #-64]
     240: 00 08 61 1e                  	fmul	d0, d0, d1
     244: 08 05 00 11                  	add	w8, w8, #1
     248: e0 17 00 fd                  	str	d0, [sp, #40]
     24c: a8 03 1c b8                  	stur	w8, [x29, #-64]
     250: a8 03 5c b8                  	ldur	w8, [x29, #-64]
     254: b0 43 5e b8                  	ldur	w16, [x29, #-28]
     258: 1f 01 10 6b                  	cmp	w8, w16
     25c: 0a 13 00 54                  	b.ge	#608 <sparse+0x4bc>
     260: e8 03 1f 2a                  	mov	w8, wzr
     264: ff 43 00 b9                  	str	wzr, [sp, #64]
     268: 04 00 00 14                  	b	#16 <sparse+0x278>
     26c: e8 43 40 b9                  	ldr	w8, [sp, #64]
     270: 08 05 00 11                  	add	w8, w8, #1
     274: e8 43 00 b9                  	str	w8, [sp, #64]
     278: b0 0b 40 f9                  	ldr	x16, [x29, #16]
     27c: b1 03 9c b8                  	ldursw	x17, [x29, #-64]
     280: e8 43 40 b9                  	ldr	w8, [sp, #64]
     284: 10 7a 71 b8                  	ldr	w16, [x16, x17, lsl #2]
     288: 1f 01 10 6b                  	cmp	w8, w16
     28c: 4a fd ff 54                  	b.ge	#-88 <sparse+0x234>
     290: a8 0f 40 f9                  	ldr	x8, [x29, #24]
     294: b0 03 9c b8                  	ldursw	x16, [x29, #-64]
     298: f1 43 80 b9                  	ldrsw	x17, [sp, #64]
     29c: e0 17 40 fd                  	ldr	d0, [sp, #40]
     2a0: 08 15 10 8b                  	add	x8, x8, x16, lsl #5
     2a4: 08 79 71 b8                  	ldr	w8, [x8, x17, lsl #2]
     2a8: a8 c3 1b b8                  	stur	w8, [x29, #-68]
     2ac: a8 13 40 f9                  	ldr	x8, [x29, #32]
     2b0: 08 19 10 8b                  	add	x8, x8, x16, lsl #6
     2b4: 01 79 71 fc                  	ldr	d1, [x8, x17, lsl #3]
     2b8: e8 03 1f 2a                  	mov	w8, wzr
     2bc: ff 37 00 b9                  	str	wzr, [sp, #52]
     2c0: 00 08 61 1e                  	fmul	d0, d0, d1
     2c4: e0 13 00 fd                  	str	d0, [sp, #32]
     2c8: b0 0b 40 f9                  	ldr	x16, [x29, #16]
     2cc: b1 03 9c b8                  	ldursw	x17, [x29, #-64]
     2d0: e8 37 40 b9                  	ldr	w8, [sp, #52]
     2d4: 10 7a 71 b8                  	ldr	w16, [x16, x17, lsl #2]
     2d8: 1f 01 10 6b                  	cmp	w8, w16
     2dc: 8a fc ff 54                  	b.ge	#-112 <sparse+0x26c>
     2e0: a8 cb 41 a9                  	ldp	x8, x18, [x29, #24]
     2e4: b0 03 9c b8                  	ldursw	x16, [x29, #-64]
     2e8: f1 37 80 b9                  	ldrsw	x17, [sp, #52]
     2ec: e1 13 40 fd                  	ldr	d1, [sp, #32]
     2f0: 08 15 10 8b                  	add	x8, x8, x16, lsl #5
     2f4: 08 79 71 b8                  	ldr	w8, [x8, x17, lsl #2]
     2f8: 50 1a 10 8b                  	add	x16, x18, x16, lsl #6
     2fc: e8 33 00 b9                  	str	w8, [sp, #48]
     300: 00 7a 71 fc                  	ldr	d0, [x16, x17, lsl #3]
     304: b0 c3 5b b8                  	ldur	w16, [x29, #-68]
     308: 00 08 61 1e                  	fmul	d0, d0, d1
     30c: 1f 01 10 6b                  	cmp	w8, w16
     310: e0 0b 00 fd                  	str	d0, [sp, #16]
     314: 41 01 00 54                  	b.ne	#40 <sparse+0x33c>
     318: a8 c3 77 29                  	ldp	w8, w16, [x29, #-68]
     31c: 1f 01 10 6b                  	cmp	w8, w16
     320: e1 00 00 54                  	b.ne	#28 <sparse+0x33c>
     324: e0 0b 40 fd                  	ldr	d0, [sp, #16]
     328: a1 03 5d fc                  	ldur	d1, [x29, #-48]
     32c: 00 28 61 1e                  	fadd	d0, d0, d1
     330: a1 83 5c fc                  	ldur	d1, [x29, #-56]
     334: 00 38 61 1e                  	fsub	d0, d0, d1
     338: e0 0b 00 fd                  	str	d0, [sp, #16]
     33c: e8 03 1f 2a                  	mov	w8, wzr
     340: a8 83 5e f8                  	ldur	x8, [x29, #-24]
     344: b0 c3 9b b8                  	ldursw	x16, [x29, #-68]
     348: ff 0f 00 b9                  	str	wzr, [sp, #12]
     34c: 08 79 70 b8                  	ldr	w8, [x8, x16, lsl #2]
     350: b0 83 5e f8                  	ldur	x16, [x29, #-24]
     354: b1 c3 9b b8                  	ldursw	x17, [x29, #-68]
     358: e8 3f 00 b9                  	str	w8, [sp, #60]
     35c: e8 03 08 2a                  	mov	w8, w8
     360: 10 0a 11 8b                  	add	x16, x16, x17, lsl #2
     364: 10 06 40 b9                  	ldr	w16, [x16, #4]
     368: 1f 01 10 6b                  	cmp	w8, w16
     36c: ea 08 00 54                  	b.ge	#284 <sparse+0x488>
     370: a8 03 5f f8                  	ldur	x8, [x29, #-16]
     374: f0 3f 80 b9                  	ldrsw	x16, [sp, #60]
     378: 08 79 70 b8                  	ldr	w8, [x8, x16, lsl #2]
     37c: f0 33 40 b9                  	ldr	w16, [sp, #48]
     380: 1f 01 10 6b                  	cmp	w8, w16
     384: ec 01 00 54                  	b.gt	#60 <sparse+0x3c0>
     388: a8 03 5f f8                  	ldur	x8, [x29, #-16]
     38c: f0 3f 80 b9                  	ldrsw	x16, [sp, #60]
     390: 08 79 70 b8                  	ldr	w8, [x8, x16, lsl #2]
     394: 1f 05 00 31                  	cmn	w8, #1
     398: e0 05 00 54                  	b.eq	#188 <sparse+0x454>
     39c: a8 03 5f f8                  	ldur	x8, [x29, #-16]
     3a0: f0 3f 80 b9                  	ldrsw	x16, [sp, #60]
     3a4: 08 79 70 b8                  	ldr	w8, [x8, x16, lsl #2]
     3a8: f0 33 40 b9                  	ldr	w16, [sp, #48]
     3ac: 1f 01 10 6b                  	cmp	w8, w16
     3b0: c0 05 00 54                  	b.eq	#184 <sparse+0x468>
     3b4: e8 3f 40 b9                  	ldr	w8, [sp, #60]
     3b8: 08 05 00 11                  	add	w8, w8, #1
     3bc: e5 ff ff 17                  	b	#-108 <sparse+0x350>
     3c0: a8 83 5e f8                  	ldur	x8, [x29, #-24]
     3c4: b0 c3 9b b8                  	ldursw	x16, [x29, #-68]
     3c8: 08 09 10 8b                  	add	x8, x8, x16, lsl #2
     3cc: 08 05 40 b9                  	ldr	w8, [x8, #4]
     3d0: 08 09 00 51                  	sub	w8, w8, #2
     3d4: 03 00 00 14                  	b	#12 <sparse+0x3e0>
     3d8: e8 3b 40 b9                  	ldr	w8, [sp, #56]
     3dc: 08 05 00 51                  	sub	w8, w8, #1
     3e0: f0 3f 40 b9                  	ldr	w16, [sp, #60]
     3e4: e8 3b 00 b9                  	str	w8, [sp, #56]
     3e8: e8 03 08 2a                  	mov	w8, w8
     3ec: 1f 01 10 6b                  	cmp	w8, w16
     3f0: 0b 02 00 54                  	b.lt	#64 <sparse+0x430>
     3f4: a8 03 5f f8                  	ldur	x8, [x29, #-16]
     3f8: f0 3b 80 b9                  	ldrsw	x16, [sp, #56]
     3fc: 08 79 70 b8                  	ldr	w8, [x8, x16, lsl #2]
     400: c8 fe ff 37                  	tbnz	w8, #31, #-40 <sparse+0x3d8>
     404: a8 83 5f f8                  	ldur	x8, [x29, #-8]
     408: f0 3b 80 b9                  	ldrsw	x16, [sp, #56]
     40c: 08 0d 10 8b                  	add	x8, x8, x16, lsl #3
     410: 00 01 40 fd                  	ldr	d0, [x8]
     414: 00 05 00 fd                  	str	d0, [x8, #8]
     418: a8 03 5f f8                  	ldur	x8, [x29, #-16]
     41c: f0 3b 80 b9                  	ldrsw	x16, [sp, #56]
     420: 08 09 10 8b                  	add	x8, x8, x16, lsl #2
     424: 10 01 40 b9                  	ldr	w16, [x8]
     428: 10 05 00 b9                  	str	w16, [x8, #4]
     42c: eb ff ff 17                  	b	#-84 <sparse+0x3d8>
     430: e8 33 40 b9                  	ldr	w8, [sp, #48]
     434: b0 03 5f f8                  	ldur	x16, [x29, #-16]
     438: f1 3f 80 b9                  	ldrsw	x17, [sp, #60]
     43c: 08 7a 31 b8                  	str	w8, [x16, x17, lsl #2]
     440: a8 83 5f f8                  	ldur	x8, [x29, #-8]
     444: f0 3f 80 b9                  	ldrsw	x16, [sp, #60]
     448: f1 03 1f aa                  	mov	x17, xzr
     44c: 1f 79 30 f8                  	str	xzr, [x8, x16, lsl #3]
     450: 0c 00 00 14                  	b	#48 <sparse+0x480>
     454: e8 33 40 b9                  	ldr	w8, [sp, #48]
     458: b0 03 5f f8                  	ldur	x16, [x29, #-16]
     45c: f1 3f 80 b9                  	ldrsw	x17, [sp, #60]
     460: 08 7a 31 b8                  	str	w8, [x16, x17, lsl #2]
     464: 07 00 00 14                  	b	#28 <sparse+0x480>
     468: b0 c3 9b b8                  	ldursw	x16, [x29, #-68]
     46c: a8 1f 40 f9                  	ldr	x8, [x29, #56]
     470: 10 f6 7e d3                  	lsl	x16, x16, #2
     474: 11 69 70 b8                  	ldr	w17, [x8, x16]
     478: 31 06 00 11                  	add	w17, w17, #1
     47c: 11 69 30 b8                  	str	w17, [x8, x16]
     480: 28 00 80 52                  	mov	w8, #1
     484: e8 0f 00 b9                  	str	w8, [sp, #12]
     488: e8 0f 40 b9                  	ldr	w8, [sp, #12]
     48c: a8 0d 00 34                  	cbz	w8, #436 <sparse+0x640>
     490: f0 3f 80 b9                  	ldrsw	x16, [sp, #60]
     494: a8 83 5f f8                  	ldur	x8, [x29, #-8]
     498: e1 0b 40 fd                  	ldr	d1, [sp, #16]
     49c: 10 f2 7d d3                  	lsl	x16, x16, #3
     4a0: 00 69 70 fc                  	ldr	d0, [x8, x16]
     4a4: 00 28 61 1e                  	fadd	d0, d0, d1
     4a8: 00 69 30 fc                  	str	d0, [x8, x16]
     4ac: e8 37 40 b9                  	ldr	w8, [sp, #52]
     4b0: 08 05 00 11                  	add	w8, w8, #1
     4b4: e8 37 00 b9                  	str	w8, [sp, #52]
     4b8: 84 ff ff 17                  	b	#-496 <sparse+0x2c8>
     4bc: 28 00 80 52                  	mov	w8, #1
     4c0: b0 43 5c b8                  	ldur	w16, [x29, #-60]
     4c4: a8 c3 1b b8                  	stur	w8, [x29, #-68]
     4c8: e8 03 08 2a                  	mov	w8, w8
     4cc: 1f 01 10 6b                  	cmp	w8, w16
     4d0: 4a 01 00 54                  	b.ge	#40 <sparse+0x4f8>
     4d4: a8 1f 40 f9                  	ldr	x8, [x29, #56]
     4d8: b0 c3 9b b8                  	ldursw	x16, [x29, #-68]
     4dc: 08 09 10 8b                  	add	x8, x8, x16, lsl #2
     4e0: 11 c1 7f 29                  	ldp	w17, w16, [x8, #-4]
     4e4: 10 02 11 0b                  	add	w16, w16, w17
     4e8: 10 01 00 b9                  	str	w16, [x8]
     4ec: a8 c3 5b b8                  	ldur	w8, [x29, #-68]
     4f0: 08 05 00 11                  	add	w8, w8, #1
     4f4: f3 ff ff 17                  	b	#-52 <sparse+0x4c0>
     4f8: e8 03 1f 2a                  	mov	w8, wzr
     4fc: bf c3 1b b8                  	stur	wzr, [x29, #-68]
     500: 04 00 00 14                  	b	#16 <sparse+0x510>
     504: a8 c3 5b b8                  	ldur	w8, [x29, #-68]
     508: 08 05 00 11                  	add	w8, w8, #1
     50c: a8 c3 1b b8                  	stur	w8, [x29, #-68]
     510: a8 c3 5b b8                  	ldur	w8, [x29, #-68]
     514: b0 43 5c b8                  	ldur	w16, [x29, #-60]
     518: 1f 01 10 6b                  	cmp	w8, w16
     51c: ca 05 00 54                  	b.ge	#184 <sparse+0x5d4>
     520: a8 c3 5b b8                  	ldur	w8, [x29, #-68]
     524: 1f 05 00 71                  	cmp	w8, #1
     528: 6b 01 00 54                  	b.lt	#44 <sparse+0x554>
     52c: b0 c3 9b b8                  	ldursw	x16, [x29, #-68]
     530: a8 83 5e f8                  	ldur	x8, [x29, #-24]
     534: b1 1f 40 f9                  	ldr	x17, [x29, #56]
     538: 10 f6 7e d3                  	lsl	x16, x16, #2
     53c: 08 69 70 b8                  	ldr	w8, [x8, x16]
     540: 10 02 11 8b                  	add	x16, x16, x17
     544: 10 c2 5f b8                  	ldur	w16, [x16, #-4]
     548: 08 01 10 4b                  	sub	w8, w8, w16
     54c: e8 4b 00 b9                  	str	w8, [sp, #72]
     550: 03 00 00 14                  	b	#12 <sparse+0x55c>
     554: e8 03 1f 2a                  	mov	w8, wzr
     558: ff 4b 00 b9                  	str	wzr, [sp, #72]
     55c: b0 c3 9b b8                  	ldursw	x16, [x29, #-68]
     560: a8 83 5e f8                  	ldur	x8, [x29, #-24]
     564: b2 1f 40 f9                  	ldr	x18, [x29, #56]
     568: 10 f6 7e d3                  	lsl	x16, x16, #2
     56c: 08 02 08 8b                  	add	x8, x16, x8
     570: 08 45 40 29                  	ldp	w8, w17, [x8]
     574: 50 6a 70 b8                  	ldr	w16, [x18, x16]
     578: 30 02 10 4b                  	sub	w16, w17, w16
     57c: e8 43 08 29                  	stp	w8, w16, [sp, #64]
     580: e8 4b 40 b9                  	ldr	w8, [sp, #72]
     584: f0 47 40 b9                  	ldr	w16, [sp, #68]
     588: e8 3f 00 b9                  	str	w8, [sp, #60]
     58c: e8 03 08 2a                  	mov	w8, w8
     590: 1f 01 10 6b                  	cmp	w8, w16
     594: 8a fb ff 54                  	b.ge	#-144 <sparse+0x504>
     598: a8 83 5f f8                  	ldur	x8, [x29, #-8]
     59c: f1 c3 47 69                  	ldpsw	x17, x16, [sp, #60]
     5a0: 00 79 70 fc                  	ldr	d0, [x8, x16, lsl #3]
     5a4: f0 3f 80 b9                  	ldrsw	x16, [sp, #60]
     5a8: 00 79 30 fc                  	str	d0, [x8, x16, lsl #3]
     5ac: a8 03 5f f8                  	ldur	x8, [x29, #-16]
     5b0: f0 43 80 b9                  	ldrsw	x16, [sp, #64]
     5b4: 10 79 70 b8                  	ldr	w16, [x8, x16, lsl #2]
     5b8: 10 79 31 b8                  	str	w16, [x8, x17, lsl #2]
     5bc: e8 43 40 b9                  	ldr	w8, [sp, #64]
     5c0: 08 05 00 11                  	add	w8, w8, #1
     5c4: e8 43 00 b9                  	str	w8, [sp, #64]
     5c8: e8 3f 40 b9                  	ldr	w8, [sp, #60]
     5cc: 08 05 00 11                  	add	w8, w8, #1
     5d0: ed ff ff 17                  	b	#-76 <sparse+0x584>
     5d4: 28 00 80 52                  	mov	w8, #1
     5d8: a8 c3 1b b8                  	stur	w8, [x29, #-68]
     5dc: f0 03 08 2a                  	mov	w16, w8
     5e0: a8 43 5c b8                  	ldur	w8, [x29, #-60]
     5e4: 11 05 00 11                  	add	w17, w8, #1
     5e8: a8 83 5e f8                  	ldur	x8, [x29, #-24]
     5ec: 1f 02 11 6b                  	cmp	w16, w17
     5f0: aa 01 00 54                  	b.ge	#52 <sparse+0x624>
     5f4: b0 c3 9b b8                  	ldursw	x16, [x29, #-68]
     5f8: b1 1f 40 f9                  	ldr	x17, [x29, #56]
     5fc: 10 f6 7e d3                  	lsl	x16, x16, #2
     600: 11 02 11 8b                  	add	x17, x16, x17
     604: 08 69 70 b8                  	ldr	w8, [x8, x16]
     608: 31 c2 5f b8                  	ldur	w17, [x17, #-4]
     60c: 08 01 11 4b                  	sub	w8, w8, w17
     610: b1 83 5e f8                  	ldur	x17, [x29, #-24]
     614: 28 6a 30 b8                  	str	w8, [x17, x16]
     618: a8 c3 5b b8                  	ldur	w8, [x29, #-68]
     61c: 08 05 00 11                  	add	w8, w8, #1
     620: ee ff ff 17                  	b	#-72 <sparse+0x5d8>
     624: b0 43 9c b8                  	ldursw	x16, [x29, #-60]
     628: fd 7b 49 a9                  	ldp	x29, x30, [sp, #144]
     62c: 08 79 70 b8                  	ldr	w8, [x8, x16, lsl #2]
     630: 08 05 00 51                  	sub	w8, w8, #1
     634: e8 43 00 b9                  	str	w8, [sp, #64]
     638: ff 83 02 91                  	add	sp, sp, #160
     63c: c0 03 5f d6                  	ret
     640: a1 03 5c b8                  	ldur	w1, [x29, #-64]
     644: 00 00 00 90                  	adrp	x0, #0
     648: 00 00 00 91                  	add	x0, x0, #0
     64c: 00 00 00 94                  	bl	#0 <sparse+0x64c>
     650: 20 00 80 52                  	mov	w0, #1
     654: 1f 20 03 d5                  	nop
     658: 00 00 00 94                  	bl	#0 <sparse+0x658>
     65c: 20 00 20 d4                  	brk	#0x1
     660: 00 00 00 90                  	adrp	x0, #0
     664: 00 00 00 91                  	add	x0, x0, #0
     668: 1f 20 03 d5                  	nop
     66c: 00 00 00 94                  	bl	#0 <sparse+0x66c>
     670: e1 43 40 b9                  	ldr	w1, [sp, #64]
     674: a2 03 5e b8                  	ldur	w2, [x29, #-32]
     678: 00 00 00 90                  	adrp	x0, #0
     67c: 00 00 00 91                  	add	x0, x0, #0
     680: 00 00 00 94                  	bl	#0 <sparse+0x680>
     684: f3 ff ff 17                  	b	#-52 <sparse+0x650>

Disassembly of section .text.icnvrt:

0000000000000000 icnvrt:
       0: ff 83 00 d1                  	sub	sp, sp, #32
       4: fd 7b 01 a9                  	stp	x29, x30, [sp, #16]
       8: fd 43 00 91                  	add	x29, sp, #16
       c: fd 7b 41 a9                  	ldp	x29, x30, [sp, #16]
      10: 01 00 62 1e                  	scvtf	d1, w0
      14: e0 07 00 fd                  	str	d0, [sp, #8]
      18: 20 08 60 1e                  	fmul	d0, d1, d0
      1c: e0 07 00 b9                  	str	w0, [sp, #4]
      20: 08 00 78 1e                  	fcvtzs	w8, d0
      24: ff 83 00 91                  	add	sp, sp, #32
      28: c0 03 5f d6                  	ret
