
is_aarch64_init.o:	file format ELF64-aarch64-little


Disassembly of section .text.randlc:

0000000000000000 randlc:
       0: ff c3 01 d1                  	sub	sp, sp, #112
       4: fd 7b 06 a9                  	stp	x29, x30, [sp, #96]
       8: fd 83 01 91                  	add	x29, sp, #96
       c: 08 00 80 d2                  	mov	x8, #0
      10: 08 00 a0 f2                  	movk	x8, #0, lsl #16
      14: 08 00 c0 f2                  	movk	x8, #0, lsl #32
      18: 08 00 e0 f2                  	movk	x8, #0, lsl #48
      1c: 08 01 40 b9                  	ldr	w8, [x8]
      20: a1 03 3f a9                  	stp	x1, x0, [x29, #-16]
      24: 88 08 00 35                  	cbnz	w8, #272 <randlc+0x134>
      28: 12 00 80 d2                  	mov	x18, #0
      2c: 12 00 a0 f2                  	movk	x18, #0, lsl #16
      30: 12 00 c0 f2                  	movk	x18, #0, lsl #32
      34: 10 fe e7 d2                  	mov	x16, #4607182418800017408
      38: 31 00 80 52                  	mov	w17, #1
      3c: 12 00 e0 f2                  	movk	x18, #0, lsl #48
      40: 08 00 80 d2                  	mov	x8, #0
      44: f1 07 00 b9                  	str	w17, [sp, #4]
      48: 11 00 80 d2                  	mov	x17, #0
      4c: 50 02 00 f9                  	str	x16, [x18]
      50: 12 00 80 d2                  	mov	x18, #0
      54: 08 00 a0 f2                  	movk	x8, #0, lsl #16
      58: 11 00 a0 f2                  	movk	x17, #0, lsl #16
      5c: 12 00 a0 f2                  	movk	x18, #0, lsl #16
      60: 08 00 c0 f2                  	movk	x8, #0, lsl #32
      64: 11 00 c0 f2                  	movk	x17, #0, lsl #32
      68: 12 00 c0 f2                  	movk	x18, #0, lsl #32
      6c: 08 00 e0 f2                  	movk	x8, #0, lsl #48
      70: 11 00 e0 f2                  	movk	x17, #0, lsl #48
      74: 12 00 e0 f2                  	movk	x18, #0, lsl #48
      78: 00 10 6c 1e                  	fmov	d0, #0.50000000
      7c: 10 01 00 f9                  	str	x16, [x8]
      80: 30 02 00 f9                  	str	x16, [x17]
      84: 50 02 00 f9                  	str	x16, [x18]
      88: f0 07 40 b9                  	ldr	w16, [sp, #4]
      8c: 1f 5e 00 71                  	cmp	w16, #23
      90: 6c 01 00 54                  	b.gt	#44 <randlc+0xbc>
      94: 01 01 40 fd                  	ldr	d1, [x8]
      98: 22 02 40 fd                  	ldr	d2, [x17]
      9c: f0 07 40 b9                  	ldr	w16, [sp, #4]
      a0: 21 08 60 1e                  	fmul	d1, d1, d0
      a4: 01 01 00 fd                  	str	d1, [x8]
      a8: 41 28 62 1e                  	fadd	d1, d2, d2
      ac: 10 06 00 11                  	add	w16, w16, #1
      b0: 21 02 00 fd                  	str	d1, [x17]
      b4: f0 07 00 b9                  	str	w16, [sp, #4]
      b8: f4 ff ff 17                  	b	#-48 <randlc+0x88>
      bc: 30 00 80 52                  	mov	w16, #1
      c0: 08 00 80 d2                  	mov	x8, #0
      c4: f0 07 00 b9                  	str	w16, [sp, #4]
      c8: 10 00 80 d2                  	mov	x16, #0
      cc: 08 00 a0 f2                  	movk	x8, #0, lsl #16
      d0: 10 00 a0 f2                  	movk	x16, #0, lsl #16
      d4: 08 00 c0 f2                  	movk	x8, #0, lsl #32
      d8: 10 00 c0 f2                  	movk	x16, #0, lsl #32
      dc: 00 10 6c 1e                  	fmov	d0, #0.50000000
      e0: 08 00 e0 f2                  	movk	x8, #0, lsl #48
      e4: 10 00 e0 f2                  	movk	x16, #0, lsl #48
      e8: f1 07 40 b9                  	ldr	w17, [sp, #4]
      ec: 3f ba 00 71                  	cmp	w17, #46
      f0: 6c 01 00 54                  	b.gt	#44 <randlc+0x11c>
      f4: 01 01 40 fd                  	ldr	d1, [x8]
      f8: 02 02 40 fd                  	ldr	d2, [x16]
      fc: f1 07 40 b9                  	ldr	w17, [sp, #4]
     100: 21 08 60 1e                  	fmul	d1, d1, d0
     104: 01 01 00 fd                  	str	d1, [x8]
     108: 41 28 62 1e                  	fadd	d1, d2, d2
     10c: 31 06 00 11                  	add	w17, w17, #1
     110: 01 02 00 fd                  	str	d1, [x16]
     114: f1 07 00 b9                  	str	w17, [sp, #4]
     118: f4 ff ff 17                  	b	#-48 <randlc+0xe8>
     11c: 08 00 80 d2                  	mov	x8, #0
     120: 08 00 a0 f2                  	movk	x8, #0, lsl #16
     124: 08 00 c0 f2                  	movk	x8, #0, lsl #32
     128: 08 00 e0 f2                  	movk	x8, #0, lsl #48
     12c: 30 00 80 52                  	mov	w16, #1
     130: 10 01 00 b9                  	str	w16, [x8]
     134: 08 00 80 d2                  	mov	x8, #0
     138: b1 03 5f f8                  	ldur	x17, [x29, #-16]
     13c: 08 00 a0 f2                  	movk	x8, #0, lsl #16
     140: 08 00 c0 f2                  	movk	x8, #0, lsl #32
     144: 08 00 e0 f2                  	movk	x8, #0, lsl #48
     148: 00 01 40 fd                  	ldr	d0, [x8]
     14c: 21 02 40 fd                  	ldr	d1, [x17]
     150: 10 00 80 d2                  	mov	x16, #0
     154: 10 00 a0 f2                  	movk	x16, #0, lsl #16
     158: 10 00 c0 f2                  	movk	x16, #0, lsl #32
     15c: 01 08 61 1e                  	fmul	d1, d0, d1
     160: 32 00 78 1e                  	fcvtzs	w18, d1
     164: a1 83 1e fc                  	stur	d1, [x29, #-24]
     168: 41 02 62 1e                  	scvtf	d1, w18
     16c: 10 00 e0 f2                  	movk	x16, #0, lsl #48
     170: f2 03 00 b9                  	str	w18, [sp]
     174: e1 17 00 fd                  	str	d1, [sp, #40]
     178: 02 02 40 fd                  	ldr	d2, [x16]
     17c: 23 02 40 fd                  	ldr	d3, [x17]
     180: b1 83 5f f8                  	ldur	x17, [x29, #-8]
     184: b2 83 5f f8                  	ldur	x18, [x29, #-8]
     188: 41 08 61 1e                  	fmul	d1, d2, d1
     18c: 61 38 61 1e                  	fsub	d1, d3, d1
     190: 22 02 40 fd                  	ldr	d2, [x17]
     194: 03 02 40 fd                  	ldr	d3, [x16]
     198: 00 08 62 1e                  	fmul	d0, d0, d2
     19c: 11 00 78 1e                  	fcvtzs	w17, d0
     1a0: 22 02 62 1e                  	scvtf	d2, w17
     1a4: f1 03 00 b9                  	str	w17, [sp]
     1a8: a0 83 1e fc                  	stur	d0, [x29, #-24]
     1ac: e2 87 01 6d                  	stp	d2, d1, [sp, #24]
     1b0: 40 02 40 fd                  	ldr	d0, [x18]
     1b4: 63 08 62 1e                  	fmul	d3, d3, d2
     1b8: 21 08 62 1e                  	fmul	d1, d1, d2
     1bc: e2 13 42 6d                  	ldp	d2, d4, [sp, #32]
     1c0: 00 38 63 1e                  	fsub	d0, d0, d3
     1c4: e0 0b 00 fd                  	str	d0, [sp, #16]
     1c8: 83 08 60 1e                  	fmul	d3, d4, d0
     1cc: 40 08 60 1e                  	fmul	d0, d2, d0
     1d0: 02 01 40 fd                  	ldr	d2, [x8]
     1d4: 61 28 61 1e                  	fadd	d1, d3, d1
     1d8: 03 02 40 fd                  	ldr	d3, [x16]
     1dc: 08 00 80 d2                  	mov	x8, #0
     1e0: 42 08 61 1e                  	fmul	d2, d2, d1
     1e4: 51 00 78 1e                  	fcvtzs	w17, d2
     1e8: 22 02 62 1e                  	scvtf	d2, w17
     1ec: a2 07 3e 6d                  	stp	d2, d1, [x29, #-32]
     1f0: 62 08 62 1e                  	fmul	d2, d3, d2
     1f4: 03 02 40 fd                  	ldr	d3, [x16]
     1f8: 08 00 a0 f2                  	movk	x8, #0, lsl #16
     1fc: 08 00 c0 f2                  	movk	x8, #0, lsl #32
     200: 10 00 80 d2                  	mov	x16, #0
     204: 21 38 62 1e                  	fsub	d1, d1, d2
     208: 08 00 e0 f2                  	movk	x8, #0, lsl #48
     20c: 10 00 a0 f2                  	movk	x16, #0, lsl #16
     210: e1 07 00 fd                  	str	d1, [sp, #8]
     214: 61 08 61 1e                  	fmul	d1, d3, d1
     218: 03 01 40 fd                  	ldr	d3, [x8]
     21c: 10 00 c0 f2                  	movk	x16, #0, lsl #32
     220: 10 00 e0 f2                  	movk	x16, #0, lsl #48
     224: 02 02 40 fd                  	ldr	d2, [x16]
     228: 20 28 60 1e                  	fadd	d0, d1, d0
     22c: 61 08 60 1e                  	fmul	d1, d3, d0
     230: b0 83 5f f8                  	ldur	x16, [x29, #-8]
     234: f1 03 00 b9                  	str	w17, [sp]
     238: 31 00 78 1e                  	fcvtzs	w17, d1
     23c: 21 02 62 1e                  	scvtf	d1, w17
     240: e1 1b 00 fd                  	str	d1, [sp, #48]
     244: 41 08 61 1e                  	fmul	d1, d2, d1
     248: a0 83 1d fc                  	stur	d0, [x29, #-40]
     24c: 00 38 61 1e                  	fsub	d0, d0, d1
     250: f1 03 00 b9                  	str	w17, [sp]
     254: 00 02 00 fd                  	str	d0, [x16]
     258: b0 83 5f f8                  	ldur	x16, [x29, #-8]
     25c: 00 01 40 fd                  	ldr	d0, [x8]
     260: fd 7b 46 a9                  	ldp	x29, x30, [sp, #96]
     264: 01 02 40 fd                  	ldr	d1, [x16]
     268: 00 08 61 1e                  	fmul	d0, d0, d1
     26c: ff c3 01 91                  	add	sp, sp, #112
     270: c0 03 5f d6                  	ret

Disassembly of section .text.create_seq:

0000000000000000 create_seq:
       0: ff 03 01 d1                  	sub	sp, sp, #64
       4: f3 13 00 f9                  	str	x19, [sp, #32]
       8: fd 7b 03 a9                  	stp	x29, x30, [sp, #48]
       c: fd c3 00 91                  	add	x29, sp, #48
      10: 13 00 80 d2                  	mov	x19, #0
      14: 13 00 a0 f2                  	movk	x19, #0, lsl #16
      18: 13 00 c0 f2                  	movk	x19, #0, lsl #32
      1c: 48 00 a0 52                  	mov	w8, #131072
      20: 13 00 e0 f2                  	movk	x19, #0, lsl #48
      24: a0 83 1f fc                  	stur	d0, [x29, #-8]
      28: e1 0f 00 fd                  	str	d1, [sp, #24]
      2c: e8 7f 01 29                  	stp	w8, wzr, [sp, #8]
      30: e8 0f 40 b9                  	ldr	w8, [sp, #12]
      34: 1f 01 60 71                  	cmp	w8, #2048, lsl #12
      38: 4a 04 00 54                  	b.ge	#136 <create_seq+0xc0>
      3c: a0 23 00 d1                  	sub	x0, x29, #8
      40: e1 63 00 91                  	add	x1, sp, #24
      44: 00 00 00 94                  	bl	#0 <create_seq+0x44>
      48: a0 23 00 d1                  	sub	x0, x29, #8
      4c: e1 63 00 91                  	add	x1, sp, #24
      50: e0 0b 00 fd                  	str	d0, [sp, #16]
      54: 00 00 00 94                  	bl	#0 <create_seq+0x54>
      58: e1 0b 40 fd                  	ldr	d1, [sp, #16]
      5c: a0 23 00 d1                  	sub	x0, x29, #8
      60: e1 63 00 91                  	add	x1, sp, #24
      64: 20 28 60 1e                  	fadd	d0, d1, d0
      68: e0 0b 00 fd                  	str	d0, [sp, #16]
      6c: 00 00 00 94                  	bl	#0 <create_seq+0x6c>
      70: e1 0b 40 fd                  	ldr	d1, [sp, #16]
      74: a0 23 00 d1                  	sub	x0, x29, #8
      78: e1 63 00 91                  	add	x1, sp, #24
      7c: 20 28 60 1e                  	fadd	d0, d1, d0
      80: e0 0b 00 fd                  	str	d0, [sp, #16]
      84: 00 00 00 94                  	bl	#0 <create_seq+0x84>
      88: e1 0b 40 fd                  	ldr	d1, [sp, #16]
      8c: e2 0b 40 bd                  	ldr	s2, [sp, #8]
      90: e8 0f 80 b9                  	ldrsw	x8, [sp, #12]
      94: f0 0f 40 b9                  	ldr	w16, [sp, #12]
      98: 20 28 60 1e                  	fadd	d0, d1, d0
      9c: 41 a4 20 0f                  	sshll	v1.2d, v2.2s, #0
      a0: 21 d8 61 5e                  	scvtf	d1, d1
      a4: 21 08 60 1e                  	fmul	d1, d1, d0
      a8: 31 00 78 1e                  	fcvtzs	w17, d1
      ac: 71 7a 28 b8                  	str	w17, [x19, x8, lsl #2]
      b0: 08 06 00 11                  	add	w8, w16, #1
      b4: e0 0b 00 fd                  	str	d0, [sp, #16]
      b8: e8 0f 00 b9                  	str	w8, [sp, #12]
      bc: dd ff ff 17                  	b	#-140 <create_seq+0x30>
      c0: fd 7b 43 a9                  	ldp	x29, x30, [sp, #48]
      c4: f3 13 40 f9                  	ldr	x19, [sp, #32]
      c8: ff 03 01 91                  	add	sp, sp, #64
      cc: c0 03 5f d6                  	ret

Disassembly of section .text.full_verify:

0000000000000000 full_verify:
       0: ff 83 00 d1                  	sub	sp, sp, #32
       4: fd 7b 01 a9                  	stp	x29, x30, [sp, #16]
       8: fd 43 00 91                  	add	x29, sp, #16
       c: 08 00 80 d2                  	mov	x8, #0
      10: 10 00 80 d2                  	mov	x16, #0
      14: 11 00 80 d2                  	mov	x17, #0
      18: 08 00 a0 f2                  	movk	x8, #0, lsl #16
      1c: 10 00 a0 f2                  	movk	x16, #0, lsl #16
      20: 11 00 a0 f2                  	movk	x17, #0, lsl #16
      24: 08 00 c0 f2                  	movk	x8, #0, lsl #32
      28: 10 00 c0 f2                  	movk	x16, #0, lsl #32
      2c: 11 00 c0 f2                  	movk	x17, #0, lsl #32
      30: 08 00 e0 f2                  	movk	x8, #0, lsl #48
      34: 10 00 e0 f2                  	movk	x16, #0, lsl #48
      38: 11 00 e0 f2                  	movk	x17, #0, lsl #48
      3c: bf c3 1f b8                  	stur	wzr, [x29, #-4]
      40: b2 c3 5f b8                  	ldur	w18, [x29, #-4]
      44: 5f 02 60 71                  	cmp	w18, #2048, lsl #12
      48: aa 01 00 54                  	b.ge	#52 <full_verify+0x7c>
      4c: b2 c3 9f b8                  	ldursw	x18, [x29, #-4]
      50: 00 02 40 f9                  	ldr	x0, [x16]
      54: 12 79 b2 b8                  	ldrsw	x18, [x8, x18, lsl #2]
      58: 41 f6 7e d3                  	lsl	x1, x18, #2
      5c: 02 68 a1 b8                  	ldrsw	x2, [x0, x1]
      60: 42 04 00 d1                  	sub	x2, x2, #1
      64: 02 68 21 b8                  	str	w2, [x0, x1]
      68: a0 c3 5f b8                  	ldur	w0, [x29, #-4]
      6c: 32 7a 22 b8                  	str	w18, [x17, x2, lsl #2]
      70: 12 04 00 11                  	add	w18, w0, #1
      74: b2 c3 1f b8                  	stur	w18, [x29, #-4]
      78: f2 ff ff 17                  	b	#-56 <full_verify+0x40>
      7c: 08 00 80 d2                  	mov	x8, #0
      80: 08 00 a0 f2                  	movk	x8, #0, lsl #16
      84: 08 00 c0 f2                  	movk	x8, #0, lsl #32
      88: 30 00 80 52                  	mov	w16, #1
      8c: 08 00 e0 f2                  	movk	x8, #0, lsl #48
      90: ff 0b 00 b9                  	str	wzr, [sp, #8]
      94: b0 c3 1f b8                  	stur	w16, [x29, #-4]
      98: 04 00 00 14                  	b	#16 <full_verify+0xa8>
      9c: b0 c3 5f b8                  	ldur	w16, [x29, #-4]
      a0: 10 06 00 11                  	add	w16, w16, #1
      a4: b0 c3 1f b8                  	stur	w16, [x29, #-4]
      a8: b0 c3 5f b8                  	ldur	w16, [x29, #-4]
      ac: 1f 02 60 71                  	cmp	w16, #2048, lsl #12
      b0: 4a 01 00 54                  	b.ge	#40 <full_verify+0xd8>
      b4: b0 c3 9f b8                  	ldursw	x16, [x29, #-4]
      b8: 10 09 10 8b                  	add	x16, x8, x16, lsl #2
      bc: 11 c2 7f 29                  	ldp	w17, w16, [x16, #-4]
      c0: 3f 02 10 6b                  	cmp	w17, w16
      c4: cd fe ff 54                  	b.le	#-40 <full_verify+0x9c>
      c8: f0 0b 40 b9                  	ldr	w16, [sp, #8]
      cc: 10 06 00 11                  	add	w16, w16, #1
      d0: f0 0b 00 b9                  	str	w16, [sp, #8]
      d4: f2 ff ff 17                  	b	#-56 <full_verify+0x9c>
      d8: e8 0b 40 b9                  	ldr	w8, [sp, #8]
      dc: 08 01 00 34                  	cbz	w8, #32 <full_verify+0xfc>
      e0: e1 0b 80 b9                  	ldrsw	x1, [sp, #8]
      e4: 00 00 80 d2                  	mov	x0, #0
      e8: 00 00 a0 f2                  	movk	x0, #0, lsl #16
      ec: 00 00 c0 f2                  	movk	x0, #0, lsl #32
      f0: 00 00 e0 f2                  	movk	x0, #0, lsl #48
      f4: 00 00 00 94                  	bl	#0 <full_verify+0xf4>
      f8: 08 00 00 14                  	b	#32 <full_verify+0x118>
      fc: 08 00 80 d2                  	mov	x8, #0
     100: 08 00 a0 f2                  	movk	x8, #0, lsl #16
     104: 08 00 c0 f2                  	movk	x8, #0, lsl #32
     108: 08 00 e0 f2                  	movk	x8, #0, lsl #48
     10c: 10 01 40 b9                  	ldr	w16, [x8]
     110: 10 06 00 11                  	add	w16, w16, #1
     114: 10 01 00 b9                  	str	w16, [x8]
     118: fd 7b 41 a9                  	ldp	x29, x30, [sp, #16]
     11c: ff 83 00 91                  	add	sp, sp, #32
     120: c0 03 5f d6                  	ret

Disassembly of section .text.rank:

0000000000000000 rank:
       0: ff 83 01 d1                  	sub	sp, sp, #96
       4: f4 4f 04 a9                  	stp	x20, x19, [sp, #64]
       8: fd 7b 05 a9                  	stp	x29, x30, [sp, #80]
       c: fd 43 01 91                  	add	x29, sp, #80
      10: 08 00 80 d2                  	mov	x8, #0
      14: 08 00 a0 f2                  	movk	x8, #0, lsl #16
      18: 08 00 c0 f2                  	movk	x8, #0, lsl #32
      1c: 11 01 a0 52                  	mov	w17, #524288
      20: 08 00 e0 f2                  	movk	x8, #0, lsl #48
      24: 10 7c 40 93                  	sxtw	x16, w0
      28: 31 02 00 4b                  	sub	w17, w17, w0
      2c: 12 c9 20 8b                  	add	x18, x8, w0, sxtw #2
      30: 50 02 00 b9                  	str	w16, [x18]
      34: 51 2a 00 b9                  	str	w17, [x18, #40]
      38: 10 00 80 d2                  	mov	x16, #0
      3c: 11 00 80 d2                  	mov	x17, #0
      40: 10 00 a0 f2                  	movk	x16, #0, lsl #16
      44: 11 00 a0 f2                  	movk	x17, #0, lsl #16
      48: 10 00 c0 f2                  	movk	x16, #0, lsl #32
      4c: 11 00 c0 f2                  	movk	x17, #0, lsl #32
      50: bf 03 3d 29                  	stp	wzr, w0, [x29, #-24]
      54: 20 01 80 52                  	mov	w0, #9
      58: 10 00 e0 f2                  	movk	x16, #0, lsl #48
      5c: 11 00 e0 f2                  	movk	x17, #0, lsl #48
      60: e0 1f 00 b9                  	str	w0, [sp, #28]
      64: b2 83 5e b8                  	ldur	w18, [x29, #-24]
      68: 5f 12 00 71                  	cmp	w18, #4
      6c: 2c 01 00 54                  	b.gt	#36 <rank+0x90>
      70: b2 83 9e b8                  	ldursw	x18, [x29, #-24]
      74: 40 f6 7e d3                  	lsl	x0, x18, #2
      78: 01 6a a0 b8                  	ldrsw	x1, [x16, x0]
      7c: 52 06 00 11                  	add	w18, w18, #1
      80: b2 83 1e b8                  	stur	w18, [x29, #-24]
      84: 01 79 61 b8                  	ldr	w1, [x8, x1, lsl #2]
      88: 21 6a 20 b8                  	str	w1, [x17, x0]
      8c: f6 ff ff 17                  	b	#-40 <rank+0x64>
      90: 08 00 80 d2                  	mov	x8, #0
      94: 08 00 a0 f2                  	movk	x8, #0, lsl #16
      98: 08 00 c0 f2                  	movk	x8, #0, lsl #32
      9c: 08 00 e0 f2                  	movk	x8, #0, lsl #48
      a0: bf 83 1e b8                  	stur	wzr, [x29, #-24]
      a4: b0 83 5e b8                  	ldur	w16, [x29, #-24]
      a8: 1f fe 0f 71                  	cmp	w16, #1023
      ac: cc 00 00 54                  	b.gt	#24 <rank+0xc4>
      b0: b0 83 9e b8                  	ldursw	x16, [x29, #-24]
      b4: 1f 79 30 b8                  	str	wzr, [x8, x16, lsl #2]
      b8: 10 06 00 11                  	add	w16, w16, #1
      bc: b0 83 1e b8                  	stur	w16, [x29, #-24]
      c0: f9 ff ff 17                  	b	#-28 <rank+0xa4>
      c4: 08 00 80 d2                  	mov	x8, #0
      c8: 10 00 80 d2                  	mov	x16, #0
      cc: 08 00 a0 f2                  	movk	x8, #0, lsl #16
      d0: 10 00 a0 f2                  	movk	x16, #0, lsl #16
      d4: 08 00 c0 f2                  	movk	x8, #0, lsl #32
      d8: 10 00 c0 f2                  	movk	x16, #0, lsl #32
      dc: 08 00 e0 f2                  	movk	x8, #0, lsl #48
      e0: 10 00 e0 f2                  	movk	x16, #0, lsl #48
      e4: bf 83 1e b8                  	stur	wzr, [x29, #-24]
      e8: b1 83 5e b8                  	ldur	w17, [x29, #-24]
      ec: 3f 02 60 71                  	cmp	w17, #2048, lsl #12
      f0: 8a 01 00 54                  	b.ge	#48 <rank+0x120>
      f4: b1 83 9e b8                  	ldursw	x17, [x29, #-24]
      f8: f2 1f 40 b9                  	ldr	w18, [sp, #28]
      fc: 00 79 71 b8                  	ldr	w0, [x8, x17, lsl #2]
     100: 31 06 00 11                  	add	w17, w17, #1
     104: b1 83 1e b8                  	stur	w17, [x29, #-24]
     108: 12 28 d2 1a                  	asr	w18, w0, w18
     10c: 52 7e 7e 93                  	sbfiz	x18, x18, #2, #32
     110: 00 6a 72 b8                  	ldr	w0, [x16, x18]
     114: 00 04 00 11                  	add	w0, w0, #1
     118: 00 6a 32 b8                  	str	w0, [x16, x18]
     11c: f3 ff ff 17                  	b	#-52 <rank+0xe8>
     120: 30 00 80 52                  	mov	w16, #1
     124: 08 00 80 d2                  	mov	x8, #0
     128: b0 83 1e b8                  	stur	w16, [x29, #-24]
     12c: 10 00 80 d2                  	mov	x16, #0
     130: 08 00 a0 f2                  	movk	x8, #0, lsl #16
     134: 10 00 a0 f2                  	movk	x16, #0, lsl #16
     138: 08 00 c0 f2                  	movk	x8, #0, lsl #32
     13c: 10 00 c0 f2                  	movk	x16, #0, lsl #32
     140: 08 00 e0 f2                  	movk	x8, #0, lsl #48
     144: 10 00 e0 f2                  	movk	x16, #0, lsl #48
     148: 1f 01 00 b9                  	str	wzr, [x8]
     14c: b1 83 5e b8                  	ldur	w17, [x29, #-24]
     150: 3f fe 0f 71                  	cmp	w17, #1023
     154: 6c 01 00 54                  	b.gt	#44 <rank+0x180>
     158: b1 83 9e b8                  	ldursw	x17, [x29, #-24]
     15c: 32 f6 7e d3                  	lsl	x18, x17, #2
     160: 40 12 00 d1                  	sub	x0, x18, #4
     164: 01 69 60 b8                  	ldr	w1, [x8, x0]
     168: 00 6a 60 b8                  	ldr	w0, [x16, x0]
     16c: 31 06 00 11                  	add	w17, w17, #1
     170: b1 83 1e b8                  	stur	w17, [x29, #-24]
     174: 20 00 00 0b                  	add	w0, w1, w0
     178: 00 69 32 b8                  	str	w0, [x8, x18]
     17c: f4 ff ff 17                  	b	#-48 <rank+0x14c>
     180: 08 00 80 d2                  	mov	x8, #0
     184: 10 00 80 d2                  	mov	x16, #0
     188: 11 00 80 d2                  	mov	x17, #0
     18c: 08 00 a0 f2                  	movk	x8, #0, lsl #16
     190: 10 00 a0 f2                  	movk	x16, #0, lsl #16
     194: 11 00 a0 f2                  	movk	x17, #0, lsl #16
     198: 08 00 c0 f2                  	movk	x8, #0, lsl #32
     19c: 10 00 c0 f2                  	movk	x16, #0, lsl #32
     1a0: 11 00 c0 f2                  	movk	x17, #0, lsl #32
     1a4: 08 00 e0 f2                  	movk	x8, #0, lsl #48
     1a8: 10 00 e0 f2                  	movk	x16, #0, lsl #48
     1ac: 11 00 e0 f2                  	movk	x17, #0, lsl #48
     1b0: bf 83 1e b8                  	stur	wzr, [x29, #-24]
     1b4: b2 83 5e b8                  	ldur	w18, [x29, #-24]
     1b8: 5f 02 60 71                  	cmp	w18, #2048, lsl #12
     1bc: ca 01 00 54                  	b.ge	#56 <rank+0x1f4>
     1c0: b2 83 9e b8                  	ldursw	x18, [x29, #-24]
     1c4: e0 1f 40 b9                  	ldr	w0, [sp, #28]
     1c8: 01 79 72 b8                  	ldr	w1, [x8, x18, lsl #2]
     1cc: 52 06 00 11                  	add	w18, w18, #1
     1d0: b2 83 1e b8                  	stur	w18, [x29, #-24]
     1d4: 20 28 c0 1a                  	asr	w0, w1, w0
     1d8: 00 7c 7e 93                  	sbfiz	x0, x0, #2, #32
     1dc: 02 6a a0 b8                  	ldrsw	x2, [x16, x0]
     1e0: e1 1b 00 b9                  	str	w1, [sp, #24]
     1e4: 43 04 00 11                  	add	w3, w2, #1
     1e8: 21 7a 22 b8                  	str	w1, [x17, x2, lsl #2]
     1ec: 03 6a 20 b8                  	str	w3, [x16, x0]
     1f0: f1 ff ff 17                  	b	#-60 <rank+0x1b4>
     1f4: 08 00 80 d2                  	mov	x8, #0
     1f8: 08 00 a0 f2                  	movk	x8, #0, lsl #16
     1fc: 08 00 c0 f2                  	movk	x8, #0, lsl #32
     200: 08 00 e0 f2                  	movk	x8, #0, lsl #48
     204: e8 13 00 f9                  	str	x8, [sp, #32]
     208: 08 00 80 d2                  	mov	x8, #0
     20c: 08 00 a0 f2                  	movk	x8, #0, lsl #16
     210: 08 00 c0 f2                  	movk	x8, #0, lsl #32
     214: 08 00 e0 f2                  	movk	x8, #0, lsl #48
     218: bf 83 1e b8                  	stur	wzr, [x29, #-24]
     21c: b0 83 5e b8                  	ldur	w16, [x29, #-24]
     220: 1f 02 42 71                  	cmp	w16, #128, lsl #12
     224: ca 00 00 54                  	b.ge	#24 <rank+0x23c>
     228: b0 83 9e b8                  	ldursw	x16, [x29, #-24]
     22c: 1f 79 30 b8                  	str	wzr, [x8, x16, lsl #2]
     230: 10 06 00 11                  	add	w16, w16, #1
     234: b0 83 1e b8                  	stur	w16, [x29, #-24]
     238: f9 ff ff 17                  	b	#-28 <rank+0x21c>
     23c: 08 00 80 d2                  	mov	x8, #0
     240: 08 00 a0 f2                  	movk	x8, #0, lsl #16
     244: 08 00 c0 f2                  	movk	x8, #0, lsl #32
     248: 08 00 e0 f2                  	movk	x8, #0, lsl #48
     24c: e8 17 00 f9                  	str	x8, [sp, #40]
     250: bf 83 1e b8                  	stur	wzr, [x29, #-24]
     254: a8 83 5e b8                  	ldur	w8, [x29, #-24]
     258: 1f 01 60 71                  	cmp	w8, #2048, lsl #12
     25c: aa 01 00 54                  	b.ge	#52 <rank+0x290>
     260: e8 13 40 f9                  	ldr	x8, [sp, #32]
     264: b0 83 9e b8                  	ldursw	x16, [x29, #-24]
     268: 08 79 b0 b8                  	ldrsw	x8, [x8, x16, lsl #2]
     26c: f0 17 40 f9                  	ldr	x16, [sp, #40]
     270: 08 f5 7e d3                  	lsl	x8, x8, #2
     274: 11 6a 68 b8                  	ldr	w17, [x16, x8]
     278: 31 06 00 11                  	add	w17, w17, #1
     27c: 11 6a 28 b8                  	str	w17, [x16, x8]
     280: a8 83 5e b8                  	ldur	w8, [x29, #-24]
     284: 08 05 00 11                  	add	w8, w8, #1
     288: a8 83 1e b8                  	stur	w8, [x29, #-24]
     28c: f2 ff ff 17                  	b	#-56 <rank+0x254>
     290: e8 47 1f 32                  	mov	w8, #524286
     294: bf 83 1e b8                  	stur	wzr, [x29, #-24]
     298: b0 83 5e b8                  	ldur	w16, [x29, #-24]
     29c: 1f 02 08 6b                  	cmp	w16, w8
     2a0: 6c 01 00 54                  	b.gt	#44 <rank+0x2cc>
     2a4: f0 17 40 f9                  	ldr	x16, [sp, #40]
     2a8: b1 83 9e b8                  	ldursw	x17, [x29, #-24]
     2ac: 10 0a 11 8b                  	add	x16, x16, x17, lsl #2
     2b0: 11 4a 40 29                  	ldp	w17, w18, [x16]
     2b4: 51 02 11 0b                  	add	w17, w18, w17
     2b8: 11 06 00 b9                  	str	w17, [x16, #4]
     2bc: b0 83 5e b8                  	ldur	w16, [x29, #-24]
     2c0: 10 06 00 11                  	add	w16, w16, #1
     2c4: b0 83 1e b8                  	stur	w16, [x29, #-24]
     2c8: f4 ff ff 17                  	b	#-48 <rank+0x298>
     2cc: 14 00 80 d2                  	mov	x20, #0
     2d0: 13 00 80 d2                  	mov	x19, #0
     2d4: 08 00 80 d2                  	mov	x8, #0
     2d8: 10 00 80 d2                  	mov	x16, #0
     2dc: 14 00 a0 f2                  	movk	x20, #0, lsl #16
     2e0: 13 00 a0 f2                  	movk	x19, #0, lsl #16
     2e4: 08 00 a0 f2                  	movk	x8, #0, lsl #16
     2e8: 10 00 a0 f2                  	movk	x16, #0, lsl #16
     2ec: 14 00 c0 f2                  	movk	x20, #0, lsl #32
     2f0: 13 00 c0 f2                  	movk	x19, #0, lsl #32
     2f4: 08 00 c0 f2                  	movk	x8, #0, lsl #32
     2f8: 10 00 c0 f2                  	movk	x16, #0, lsl #32
     2fc: 14 00 e0 f2                  	movk	x20, #0, lsl #48
     300: 13 00 e0 f2                  	movk	x19, #0, lsl #48
     304: 08 00 e0 f2                  	movk	x8, #0, lsl #48
     308: 10 00 e0 f2                  	movk	x16, #0, lsl #48
     30c: bf 83 1e b8                  	stur	wzr, [x29, #-24]
     310: e8 43 00 a9                  	stp	x8, x16, [sp]
     314: 04 00 00 14                  	b	#16 <rank+0x324>
     318: a8 83 5e b8                  	ldur	w8, [x29, #-24]
     31c: 08 05 00 11                  	add	w8, w8, #1
     320: a8 83 1e b8                  	stur	w8, [x29, #-24]
     324: a8 83 5e b8                  	ldur	w8, [x29, #-24]
     328: 1f 11 00 71                  	cmp	w8, #4
     32c: cc 04 00 54                  	b.gt	#152 <rank+0x3c4>
     330: a8 83 9e b8                  	ldursw	x8, [x29, #-24]
     334: 88 7a 68 b8                  	ldr	w8, [x20, x8, lsl #2]
     338: 1f 05 00 71                  	cmp	w8, #1
     33c: a8 43 1e b8                  	stur	w8, [x29, #-28]
     340: cb fe ff 54                  	b.lt	#-40 <rank+0x318>
     344: 1f 01 60 71                  	cmp	w8, #2048, lsl #12
     348: 8a fe ff 54                  	b.ge	#-48 <rank+0x318>
     34c: e8 17 40 f9                  	ldr	x8, [sp, #40]
     350: b0 c7 7c 69                  	ldpsw	x16, x17, [x29, #-28]
     354: b2 c3 5e b8                  	ldur	w18, [x29, #-20]
     358: 08 09 10 8b                  	add	x8, x8, x16, lsl #2
     35c: 08 c1 5f b8                  	ldur	w8, [x8, #-4]
     360: 70 7a 71 b8                  	ldr	w16, [x19, x17, lsl #2]
     364: 3f 0a 00 71                  	cmp	w17, #2
     368: 51 06 00 51                  	sub	w17, w18, #1
     36c: ff 23 02 29                  	stp	wzr, w8, [sp, #16]
     370: 2c 01 00 54                  	b.gt	#36 <rank+0x394>
     374: 10 02 11 0b                  	add	w16, w16, w17
     378: 1f 01 10 6b                  	cmp	w8, w16
     37c: 21 01 00 54                  	b.ne	#36 <rank+0x3a0>
     380: f0 03 40 f9                  	ldr	x16, [sp]
     384: 08 02 40 b9                  	ldr	w8, [x16]
     388: 08 05 00 11                  	add	w8, w8, #1
     38c: 08 02 00 b9                  	str	w8, [x16]
     390: 06 00 00 14                  	b	#24 <rank+0x3a8>
     394: 10 02 11 4b                  	sub	w16, w16, w17
     398: 1f 01 10 6b                  	cmp	w8, w16
     39c: 20 ff ff 54                  	b.eq	#-28 <rank+0x380>
     3a0: 28 00 80 52                  	mov	w8, #1
     3a4: e8 13 00 b9                  	str	w8, [sp, #16]
     3a8: e8 13 40 b9                  	ldr	w8, [sp, #16]
     3ac: 1f 05 00 71                  	cmp	w8, #1
     3b0: 41 fb ff 54                  	b.ne	#-152 <rank+0x318>
     3b4: a2 07 7d 29                  	ldp	w2, w1, [x29, #-24]
     3b8: e0 07 40 f9                  	ldr	x0, [sp, #8]
     3bc: 00 00 00 94                  	bl	#0 <rank+0x3bc>
     3c0: d6 ff ff 17                  	b	#-168 <rank+0x318>
     3c4: a8 c3 5e b8                  	ldur	w8, [x29, #-20]
     3c8: 1f 29 00 71                  	cmp	w8, #10
     3cc: e1 00 00 54                  	b.ne	#28 <rank+0x3e8>
     3d0: e8 17 40 f9                  	ldr	x8, [sp, #40]
     3d4: 10 00 80 d2                  	mov	x16, #0
     3d8: 10 00 a0 f2                  	movk	x16, #0, lsl #16
     3dc: 10 00 c0 f2                  	movk	x16, #0, lsl #32
     3e0: 10 00 e0 f2                  	movk	x16, #0, lsl #48
     3e4: 08 02 00 f9                  	str	x8, [x16]
     3e8: fd 7b 45 a9                  	ldp	x29, x30, [sp, #80]
     3ec: f4 4f 44 a9                  	ldp	x20, x19, [sp, #64]
     3f0: ff 83 01 91                  	add	sp, sp, #96
     3f4: c0 03 5f d6                  	ret

Disassembly of section .text.main:

0000000000000000 main:
       0: ff c3 02 d1                  	sub	sp, sp, #176
       4: e8 4b 00 fd                  	str	d8, [sp, #144]
       8: f3 4f 00 f9                  	str	x19, [sp, #152]
       c: fd 7b 0a a9                  	stp	x29, x30, [sp, #160]
      10: fd 83 02 91                  	add	x29, sp, #160
      14: a0 7f 3d 29                  	stp	w0, wzr, [x29, #-24]
      18: a1 03 1e f8                  	stur	x1, [x29, #-32]
      1c: 00 00 80 d2                  	mov	x0, #0
      20: 01 00 80 d2                  	mov	x1, #0
      24: 00 00 a0 f2                  	movk	x0, #0, lsl #16
      28: 01 00 a0 f2                  	movk	x1, #0, lsl #16
      2c: 00 00 c0 f2                  	movk	x0, #0, lsl #32
      30: 01 00 c0 f2                  	movk	x1, #0, lsl #32
      34: 00 00 e0 f2                  	movk	x0, #0, lsl #48
      38: 01 00 e0 f2                  	movk	x1, #0, lsl #48
      3c: bf 43 1d b8                  	stur	wzr, [x29, #-44]
      40: 00 00 00 94                  	bl	#0 <main+0x40>
      44: a8 03 1c f8                  	stur	x8, [x29, #-64]
      48: a8 00 00 b4                  	cbz	x8, #20 <main+0x5c>
      4c: a0 03 5c f8                  	ldur	x0, [x29, #-64]
      50: 00 00 00 94                  	bl	#0 <main+0x50>
      54: 28 00 80 52                  	mov	w8, #1
      58: a8 43 1d b8                  	stur	w8, [x29, #-44]
      5c: e0 03 1f 2a                  	mov	w0, wzr
      60: 00 00 00 94                  	bl	#0 <main+0x60>
      64: a8 43 5d b8                  	ldur	w8, [x29, #-44]
      68: e8 00 00 34                  	cbz	w8, #28 <main+0x84>
      6c: 20 00 80 52                  	mov	w0, #1
      70: 00 00 00 94                  	bl	#0 <main+0x70>
      74: 40 00 80 52                  	mov	w0, #2
      78: 00 00 00 94                  	bl	#0 <main+0x78>
      7c: 60 00 80 52                  	mov	w0, #3
      80: 00 00 00 94                  	bl	#0 <main+0x80>
      84: a8 43 5d b8                  	ldur	w8, [x29, #-44]
      88: 68 00 00 34                  	cbz	w8, #12 <main+0x94>
      8c: 60 00 80 52                  	mov	w0, #3
      90: 00 00 00 94                  	bl	#0 <main+0x90>
      94: 08 00 80 d2                  	mov	x8, #0
      98: 10 00 80 d2                  	mov	x16, #0
      9c: 11 00 80 d2                  	mov	x17, #0
      a0: 12 00 80 d2                  	mov	x18, #0
      a4: 08 00 a0 f2                  	movk	x8, #0, lsl #16
      a8: 10 00 a0 f2                  	movk	x16, #0, lsl #16
      ac: 11 00 a0 f2                  	movk	x17, #0, lsl #16
      b0: 12 00 a0 f2                  	movk	x18, #0, lsl #16
      b4: 08 00 c0 f2                  	movk	x8, #0, lsl #32
      b8: 10 00 c0 f2                  	movk	x16, #0, lsl #32
      bc: 11 00 c0 f2                  	movk	x17, #0, lsl #32
      c0: 12 00 c0 f2                  	movk	x18, #0, lsl #32
      c4: 08 00 e0 f2                  	movk	x8, #0, lsl #48
      c8: 10 00 e0 f2                  	movk	x16, #0, lsl #48
      cc: 11 00 e0 f2                  	movk	x17, #0, lsl #48
      d0: 12 00 e0 f2                  	movk	x18, #0, lsl #48
      d4: bf c3 1d b8                  	stur	wzr, [x29, #-36]
      d8: a0 c3 5d b8                  	ldur	w0, [x29, #-36]
      dc: 1f 10 00 71                  	cmp	w0, #4
      e0: 4c 01 00 54                  	b.gt	#40 <main+0x108>
      e4: a0 c3 9d b8                  	ldursw	x0, [x29, #-36]
      e8: 01 f4 7e d3                  	lsl	x1, x0, #2
      ec: 02 69 61 b8                  	ldr	w2, [x8, x1]
      f0: 23 6a 61 b8                  	ldr	w3, [x17, x1]
      f4: 00 04 00 11                  	add	w0, w0, #1
      f8: a0 c3 1d b8                  	stur	w0, [x29, #-36]
      fc: 02 6a 21 b8                  	str	w2, [x16, x1]
     100: 43 6a 21 b8                  	str	w3, [x18, x1]
     104: f5 ff ff 17                  	b	#-44 <main+0xd8>
     108: 00 00 80 d2                  	mov	x0, #0
     10c: 00 00 a0 f2                  	movk	x0, #0, lsl #16
     110: 00 00 c0 f2                  	movk	x0, #0, lsl #32
     114: 00 00 e0 f2                  	movk	x0, #0, lsl #48
     118: 00 00 00 94                  	bl	#0 <main+0x118>
     11c: 00 00 80 d2                  	mov	x0, #0
     120: 00 00 a0 f2                  	movk	x0, #0, lsl #16
     124: 00 00 c0 f2                  	movk	x0, #0, lsl #32
     128: 00 00 e0 f2                  	movk	x0, #0, lsl #48
     12c: 01 10 a0 52                  	mov	w1, #8388608
     130: 22 08 80 52                  	mov	w2, #65
     134: 00 00 00 94                  	bl	#0 <main+0x134>
     138: 00 00 80 d2                  	mov	x0, #0
     13c: 00 00 a0 f2                  	movk	x0, #0, lsl #16
     140: 00 00 c0 f2                  	movk	x0, #0, lsl #32
     144: 00 00 e0 f2                  	movk	x0, #0, lsl #48
     148: 41 01 80 52                  	mov	w1, #10
     14c: 00 00 00 94                  	bl	#0 <main+0x14c>
     150: a8 43 5d b8                  	ldur	w8, [x29, #-44]
     154: 68 00 00 34                  	cbz	w8, #12 <main+0x160>
     158: 20 00 80 52                  	mov	w0, #1
     15c: 00 00 00 94                  	bl	#0 <main+0x15c>
     160: 08 00 80 d2                  	mov	x8, #0
     164: 08 00 a0 f2                  	movk	x8, #0, lsl #16
     168: 08 00 c0 f2                  	movk	x8, #0, lsl #32
     16c: 08 00 e0 f2                  	movk	x8, #0, lsl #48
     170: 00 01 40 fd                  	ldr	d0, [x8]
     174: 08 00 80 d2                  	mov	x8, #0
     178: 08 00 a0 f2                  	movk	x8, #0, lsl #16
     17c: 08 00 c0 f2                  	movk	x8, #0, lsl #32
     180: 08 00 e0 f2                  	movk	x8, #0, lsl #48
     184: 01 01 40 fd                  	ldr	d1, [x8]
     188: 00 00 00 94                  	bl	#0 <main+0x188>
     18c: a8 43 5d b8                  	ldur	w8, [x29, #-44]
     190: 68 00 00 34                  	cbz	w8, #12 <main+0x19c>
     194: 20 00 80 52                  	mov	w0, #1
     198: 00 00 00 94                  	bl	#0 <main+0x198>
     19c: 20 00 80 52                  	mov	w0, #1
     1a0: 33 00 80 52                  	mov	w19, #1
     1a4: 00 00 00 94                  	bl	#0 <main+0x1a4>
     1a8: 08 00 80 d2                  	mov	x8, #0
     1ac: 00 00 80 d2                  	mov	x0, #0
     1b0: 08 00 a0 f2                  	movk	x8, #0, lsl #16
     1b4: 00 00 a0 f2                  	movk	x0, #0, lsl #16
     1b8: 08 00 c0 f2                  	movk	x8, #0, lsl #32
     1bc: 00 00 c0 f2                  	movk	x0, #0, lsl #32
     1c0: 08 00 e0 f2                  	movk	x8, #0, lsl #48
     1c4: 00 00 e0 f2                  	movk	x0, #0, lsl #48
     1c8: 1f 01 00 b9                  	str	wzr, [x8]
     1cc: 00 00 00 94                  	bl	#0 <main+0x1cc>
     1d0: e0 03 1f 2a                  	mov	w0, wzr
     1d4: 00 00 00 94                  	bl	#0 <main+0x1d4>
     1d8: b3 83 1d b8                  	stur	w19, [x29, #-40]
     1dc: 13 00 80 d2                  	mov	x19, #0
     1e0: 13 00 a0 f2                  	movk	x19, #0, lsl #16
     1e4: 13 00 c0 f2                  	movk	x19, #0, lsl #32
     1e8: 13 00 e0 f2                  	movk	x19, #0, lsl #48
     1ec: a8 83 5d b8                  	ldur	w8, [x29, #-40]
     1f0: 1f 29 00 71                  	cmp	w8, #10
     1f4: 4c 01 00 54                  	b.gt	#40 <main+0x21c>
     1f8: a1 83 5d b8                  	ldur	w1, [x29, #-40]
     1fc: e0 03 13 aa                  	mov	x0, x19
     200: 00 00 00 94                  	bl	#0 <main+0x200>
     204: a0 83 5d b8                  	ldur	w0, [x29, #-40]
     208: 00 00 00 94                  	bl	#0 <main+0x208>
     20c: a8 83 5d b8                  	ldur	w8, [x29, #-40]
     210: 08 05 00 11                  	add	w8, w8, #1
     214: a8 83 1d b8                  	stur	w8, [x29, #-40]
     218: f5 ff ff 17                  	b	#-44 <main+0x1ec>
     21c: e0 03 1f 2a                  	mov	w0, wzr
     220: 00 00 00 94                  	bl	#0 <main+0x220>
     224: e0 03 1f 2a                  	mov	w0, wzr
     228: 00 00 00 94                  	bl	#0 <main+0x228>
     22c: a8 43 5d b8                  	ldur	w8, [x29, #-44]
     230: a0 83 1c fc                  	stur	d0, [x29, #-56]
     234: 68 00 00 34                  	cbz	w8, #12 <main+0x240>
     238: 40 00 80 52                  	mov	w0, #2
     23c: 00 00 00 94                  	bl	#0 <main+0x23c>
     240: 00 00 00 94                  	bl	#0 <main+0x240>
     244: a8 43 5d b8                  	ldur	w8, [x29, #-44]
     248: 68 00 00 34                  	cbz	w8, #12 <main+0x254>
     24c: 40 00 80 52                  	mov	w0, #2
     250: 00 00 00 94                  	bl	#0 <main+0x250>
     254: a8 43 5d b8                  	ldur	w8, [x29, #-44]
     258: 68 00 00 34                  	cbz	w8, #12 <main+0x264>
     25c: 60 00 80 52                  	mov	w0, #3
     260: 00 00 00 94                  	bl	#0 <main+0x260>
     264: 08 00 80 d2                  	mov	x8, #0
     268: 08 00 a0 f2                  	movk	x8, #0, lsl #16
     26c: 08 00 c0 f2                  	movk	x8, #0, lsl #32
     270: 08 00 e0 f2                  	movk	x8, #0, lsl #48
     274: 08 01 40 b9                  	ldr	w8, [x8]
     278: 1f cd 00 71                  	cmp	w8, #51
     27c: c0 00 00 54                  	b.eq	#24 <main+0x294>
     280: 08 00 80 d2                  	mov	x8, #0
     284: 08 00 a0 f2                  	movk	x8, #0, lsl #16
     288: 08 00 c0 f2                  	movk	x8, #0, lsl #32
     28c: 08 00 e0 f2                  	movk	x8, #0, lsl #48
     290: 1f 01 00 b9                  	str	wzr, [x8]
     294: 10 00 80 d2                  	mov	x16, #0
     298: 10 00 a0 f2                  	movk	x16, #0, lsl #16
     29c: 10 00 c0 f2                  	movk	x16, #0, lsl #32
     2a0: 11 90 d0 d2                  	mov	x17, #145685290680320
     2a4: 10 00 e0 f2                  	movk	x16, #0, lsl #48
     2a8: 88 32 e8 d2                  	mov	x8, #4725401909018492928
     2ac: d1 25 e8 f2                  	movk	x17, #16686, lsl #48
     2b0: 10 02 40 b9                  	ldr	w16, [x16]
     2b4: 01 01 67 9e                  	fmov	d1, x8
     2b8: 22 02 67 9e                  	fmov	d2, x17
     2bc: 08 00 80 d2                  	mov	x8, #0
     2c0: 11 00 80 d2                  	mov	x17, #0
     2c4: 12 00 80 d2                  	mov	x18, #0
     2c8: 00 00 80 d2                  	mov	x0, #0
     2cc: 08 00 a0 f2                  	movk	x8, #0, lsl #16
     2d0: 11 00 a0 f2                  	movk	x17, #0, lsl #16
     2d4: 12 00 a0 f2                  	movk	x18, #0, lsl #16
     2d8: 00 00 a0 f2                  	movk	x0, #0, lsl #16
     2dc: a0 83 5c fc                  	ldur	d0, [x29, #-56]
     2e0: 08 00 c0 f2                  	movk	x8, #0, lsl #32
     2e4: 11 00 c0 f2                  	movk	x17, #0, lsl #32
     2e8: 12 00 c0 f2                  	movk	x18, #0, lsl #32
     2ec: 00 00 c0 f2                  	movk	x0, #0, lsl #32
     2f0: 01 00 80 d2                  	mov	x1, #0
     2f4: 02 00 80 d2                  	mov	x2, #0
     2f8: 03 00 80 d2                  	mov	x3, #0
     2fc: f0 0b 00 b9                  	str	w16, [sp, #8]
     300: 10 00 80 d2                  	mov	x16, #0
     304: 08 00 e0 f2                  	movk	x8, #0, lsl #48
     308: 11 00 e0 f2                  	movk	x17, #0, lsl #48
     30c: 12 00 e0 f2                  	movk	x18, #0, lsl #48
     310: 00 00 e0 f2                  	movk	x0, #0, lsl #48
     314: f1 23 04 a9                  	stp	x17, x8, [sp, #64]
     318: 08 00 80 d2                  	mov	x8, #0
     31c: e0 4b 03 a9                  	stp	x0, x18, [sp, #48]
     320: 00 00 80 d2                  	mov	x0, #0
     324: 01 00 a0 f2                  	movk	x1, #0, lsl #16
     328: 02 00 a0 f2                  	movk	x2, #0, lsl #16
     32c: 03 00 a0 f2                  	movk	x3, #0, lsl #16
     330: 10 00 a0 f2                  	movk	x16, #0, lsl #16
     334: 08 00 a0 f2                  	movk	x8, #0, lsl #16
     338: 00 00 a0 f2                  	movk	x0, #0, lsl #16
     33c: 01 00 c0 f2                  	movk	x1, #0, lsl #32
     340: 02 00 c0 f2                  	movk	x2, #0, lsl #32
     344: 03 00 c0 f2                  	movk	x3, #0, lsl #32
     348: 10 00 c0 f2                  	movk	x16, #0, lsl #32
     34c: 21 18 60 1e                  	fdiv	d1, d1, d0
     350: 08 00 c0 f2                  	movk	x8, #0, lsl #32
     354: 00 00 c0 f2                  	movk	x0, #0, lsl #32
     358: 01 00 e0 f2                  	movk	x1, #0, lsl #48
     35c: 02 00 e0 f2                  	movk	x2, #0, lsl #48
     360: 03 00 e0 f2                  	movk	x3, #0, lsl #48
     364: 10 00 e0 f2                  	movk	x16, #0, lsl #48
     368: 21 18 62 1e                  	fdiv	d1, d1, d2
     36c: 08 00 e0 f2                  	movk	x8, #0, lsl #48
     370: 00 00 e0 f2                  	movk	x0, #0, lsl #48
     374: e2 07 02 a9                  	stp	x2, x1, [sp, #32]
     378: f0 0f 01 a9                  	stp	x16, x3, [sp, #16]
     37c: 21 08 80 52                  	mov	w1, #65
     380: 42 00 a0 52                  	mov	w2, #131072
     384: 03 08 80 52                  	mov	w3, #64
     388: 45 01 80 52                  	mov	w5, #10
     38c: e4 03 1f 2a                  	mov	w4, wzr
     390: e8 03 00 f9                  	str	x8, [sp]
     394: 00 00 00 94                  	bl	#0 <main+0x394>
     398: a8 43 5d b8                  	ldur	w8, [x29, #-44]
     39c: 48 07 00 34                  	cbz	w8, #232 <main+0x484>
     3a0: 60 00 80 52                  	mov	w0, #3
     3a4: 00 00 00 94                  	bl	#0 <main+0x3a4>
     3a8: 00 00 80 d2                  	mov	x0, #0
     3ac: 00 00 a0 f2                  	movk	x0, #0, lsl #16
     3b0: 00 00 c0 f2                  	movk	x0, #0, lsl #32
     3b4: 00 00 e0 f2                  	movk	x0, #0, lsl #48
     3b8: a0 83 1b fc                  	stur	d0, [x29, #-72]
     3bc: 00 00 00 94                  	bl	#0 <main+0x3bc>
     3c0: a0 83 5b fc                  	ldur	d0, [x29, #-72]
     3c4: 00 00 80 d2                  	mov	x0, #0
     3c8: 00 00 a0 f2                  	movk	x0, #0, lsl #16
     3cc: 00 00 c0 f2                  	movk	x0, #0, lsl #32
     3d0: 00 00 e0 f2                  	movk	x0, #0, lsl #48
     3d4: 00 00 00 94                  	bl	#0 <main+0x3d4>
     3d8: a0 83 5b fc                  	ldur	d0, [x29, #-72]
     3dc: 08 20 60 1e                  	fcmp	d0, #0.0
     3e0: 61 00 00 54                  	b.ne	#12 <main+0x3ec>
     3e4: 08 fe e7 d2                  	mov	x8, #4607182418800017408
     3e8: a8 83 1b f8                  	stur	x8, [x29, #-72]
     3ec: 20 00 80 52                  	mov	w0, #1
     3f0: 00 00 00 94                  	bl	#0 <main+0x3f0>
     3f4: a1 83 5b fc                  	ldur	d1, [x29, #-72]
     3f8: 00 00 80 d2                  	mov	x0, #0
     3fc: 28 0b e8 d2                  	mov	x8, #4636737291354636288
     400: 00 00 a0 f2                  	movk	x0, #0, lsl #16
     404: 01 18 61 1e                  	fdiv	d1, d0, d1
     408: 08 01 67 9e                  	fmov	d8, x8
     40c: 00 00 c0 f2                  	movk	x0, #0, lsl #32
     410: 21 08 68 1e                  	fmul	d1, d1, d8
     414: 00 00 e0 f2                  	movk	x0, #0, lsl #48
     418: a0 83 1c fc                  	stur	d0, [x29, #-56]
     41c: e1 2b 00 fd                  	str	d1, [sp, #80]
     420: 00 00 00 94                  	bl	#0 <main+0x420>
     424: e0 03 1f 2a                  	mov	w0, wzr
     428: 00 00 00 94                  	bl	#0 <main+0x428>
     42c: a1 83 5b fc                  	ldur	d1, [x29, #-72]
     430: 00 00 80 d2                  	mov	x0, #0
     434: 00 00 a0 f2                  	movk	x0, #0, lsl #16
     438: 00 00 c0 f2                  	movk	x0, #0, lsl #32
     43c: 01 18 61 1e                  	fdiv	d1, d0, d1
     440: 21 08 68 1e                  	fmul	d1, d1, d8
     444: 00 00 e0 f2                  	movk	x0, #0, lsl #48
     448: a0 83 1c fc                  	stur	d0, [x29, #-56]
     44c: e1 2b 00 fd                  	str	d1, [sp, #80]
     450: 00 00 00 94                  	bl	#0 <main+0x450>
     454: 40 00 80 52                  	mov	w0, #2
     458: 00 00 00 94                  	bl	#0 <main+0x458>
     45c: a1 83 5b fc                  	ldur	d1, [x29, #-72]
     460: 00 00 80 d2                  	mov	x0, #0
     464: 00 00 a0 f2                  	movk	x0, #0, lsl #16
     468: 00 00 c0 f2                  	movk	x0, #0, lsl #32
     46c: 01 18 61 1e                  	fdiv	d1, d0, d1
     470: 21 08 68 1e                  	fmul	d1, d1, d8
     474: 00 00 e0 f2                  	movk	x0, #0, lsl #48
     478: a0 83 1c fc                  	stur	d0, [x29, #-56]
     47c: e1 2b 00 fd                  	str	d1, [sp, #80]
     480: 00 00 00 94                  	bl	#0 <main+0x480>
     484: fd 7b 4a a9                  	ldp	x29, x30, [sp, #160]
     488: f3 4f 40 f9                  	ldr	x19, [sp, #152]
     48c: e8 4b 40 fd                  	ldr	d8, [sp, #144]
     490: e8 03 1f 2a                  	mov	w8, wzr
     494: ff c3 02 91                  	add	sp, sp, #176
     498: c0 03 5f d6                  	ret
