Archive member included because of file (symbol)

/home/nikos/musl-cross-make/output/x86_64-linux-musl/lib/libc.a(__libc_start_main.o)
                              /home/nikos/musl-cross-make/output/x86_64-linux-musl/lib/crt1.o (__libc_start_main)
/home/nikos/musl-cross-make/output/x86_64-linux-musl/lib/libc.a(exit.o)
                              /home/nikos/musl-cross-make/output/x86_64-linux-musl/lib/libc.a(__libc_start_main.o) (exit)
/home/nikos/musl-cross-make/output/x86_64-linux-musl/lib/libc.a(defsysinfo.o)
                              /home/nikos/musl-cross-make/output/x86_64-linux-musl/lib/libc.a(__libc_start_main.o) (__sysinfo)
/home/nikos/musl-cross-make/output/x86_64-linux-musl/lib/libc.a(libc.o)
                              /home/nikos/musl-cross-make/output/x86_64-linux-musl/lib/libc.a(__libc_start_main.o) (__progname_full)
/home/nikos/musl-cross-make/output/x86_64-linux-musl/lib/libc.a(printf.o)
                              call_leaf_x86_64.o (printf)
/home/nikos/musl-cross-make/output/x86_64-linux-musl/lib/libc.a(stdout.o)
                              /home/nikos/musl-cross-make/output/x86_64-linux-musl/lib/libc.a(printf.o) (__stdout_FILE)
/home/nikos/musl-cross-make/output/x86_64-linux-musl/lib/libc.a(vfprintf.o)
                              /home/nikos/musl-cross-make/output/x86_64-linux-musl/lib/libc.a(printf.o) (vfprintf)
/home/nikos/musl-cross-make/output/x86_64-linux-musl/lib/libc.a(strnlen.o)
                              /home/nikos/musl-cross-make/output/x86_64-linux-musl/lib/libc.a(vfprintf.o) (strnlen)
/home/nikos/musl-cross-make/output/x86_64-linux-musl/lib/libc.a(memset.o)
                              /home/nikos/musl-cross-make/output/x86_64-linux-musl/lib/libc.a(vfprintf.o) (memset)
/home/nikos/musl-cross-make/output/x86_64-linux-musl/lib/libc.a(__environ.o)
                              /home/nikos/musl-cross-make/output/x86_64-linux-musl/lib/libc.a(__libc_start_main.o) (__environ)
/home/nikos/musl-cross-make/output/x86_64-linux-musl/lib/libc.a(__init_tls.o)
                              /home/nikos/musl-cross-make/output/x86_64-linux-musl/lib/libc.a(__libc_start_main.o) (__init_tls)
/home/nikos/musl-cross-make/output/x86_64-linux-musl/lib/libc.a(__errno_location.o)
                              /home/nikos/musl-cross-make/output/x86_64-linux-musl/lib/libc.a(vfprintf.o) (___errno_location)
/home/nikos/musl-cross-make/output/x86_64-linux-musl/lib/libc.a(strerror.o)
                              /home/nikos/musl-cross-make/output/x86_64-linux-musl/lib/libc.a(vfprintf.o) (strerror)
/home/nikos/musl-cross-make/output/x86_64-linux-musl/lib/libc.a(_Exit.o)
                              /home/nikos/musl-cross-make/output/x86_64-linux-musl/lib/libc.a(exit.o) (_Exit)
/home/nikos/musl-cross-make/output/x86_64-linux-musl/lib/libc.a(__lctrans.o)
                              /home/nikos/musl-cross-make/output/x86_64-linux-musl/lib/libc.a(strerror.o) (__lctrans)
/home/nikos/musl-cross-make/output/x86_64-linux-musl/lib/libc.a(__fpclassifyl.o)
                              /home/nikos/musl-cross-make/output/x86_64-linux-musl/lib/libc.a(vfprintf.o) (__fpclassifyl)
/home/nikos/musl-cross-make/output/x86_64-linux-musl/lib/libc.a(__signbitl.o)
                              /home/nikos/musl-cross-make/output/x86_64-linux-musl/lib/libc.a(vfprintf.o) (__signbitl)
/home/nikos/musl-cross-make/output/x86_64-linux-musl/lib/libc.a(frexpl.o)
                              /home/nikos/musl-cross-make/output/x86_64-linux-musl/lib/libc.a(vfprintf.o) (frexpl)
/home/nikos/musl-cross-make/output/x86_64-linux-musl/lib/libc.a(wctomb.o)
                              /home/nikos/musl-cross-make/output/x86_64-linux-musl/lib/libc.a(vfprintf.o) (wctomb)
/home/nikos/musl-cross-make/output/x86_64-linux-musl/lib/libc.a(__lockfile.o)
                              /home/nikos/musl-cross-make/output/x86_64-linux-musl/lib/libc.a(vfprintf.o) (__lockfile)
/home/nikos/musl-cross-make/output/x86_64-linux-musl/lib/libc.a(__stdio_close.o)
                              /home/nikos/musl-cross-make/output/x86_64-linux-musl/lib/libc.a(stdout.o) (__stdio_close)
/home/nikos/musl-cross-make/output/x86_64-linux-musl/lib/libc.a(__stdio_seek.o)
                              /home/nikos/musl-cross-make/output/x86_64-linux-musl/lib/libc.a(stdout.o) (__stdio_seek)
/home/nikos/musl-cross-make/output/x86_64-linux-musl/lib/libc.a(__stdout_write.o)
                              /home/nikos/musl-cross-make/output/x86_64-linux-musl/lib/libc.a(stdout.o) (__stdout_write)
/home/nikos/musl-cross-make/output/x86_64-linux-musl/lib/libc.a(__towrite.o)
                              /home/nikos/musl-cross-make/output/x86_64-linux-musl/lib/libc.a(vfprintf.o) (__towrite)
/home/nikos/musl-cross-make/output/x86_64-linux-musl/lib/libc.a(fwrite.o)
                              /home/nikos/musl-cross-make/output/x86_64-linux-musl/lib/libc.a(vfprintf.o) (__fwritex)
/home/nikos/musl-cross-make/output/x86_64-linux-musl/lib/libc.a(memchr.o)
                              /home/nikos/musl-cross-make/output/x86_64-linux-musl/lib/libc.a(strnlen.o) (memchr)
/home/nikos/musl-cross-make/output/x86_64-linux-musl/lib/libc.a(memcpy.o)
                              /home/nikos/musl-cross-make/output/x86_64-linux-musl/lib/libc.a(__init_tls.o) (memcpy)
/home/nikos/musl-cross-make/output/x86_64-linux-musl/lib/libc.a(default_attr.o)
                              /home/nikos/musl-cross-make/output/x86_64-linux-musl/lib/libc.a(__init_tls.o) (__default_stacksize)
/home/nikos/musl-cross-make/output/x86_64-linux-musl/lib/libc.a(__set_thread_area.o)
                              /home/nikos/musl-cross-make/output/x86_64-linux-musl/lib/libc.a(__init_tls.o) (__set_thread_area)
/home/nikos/musl-cross-make/output/x86_64-linux-musl/lib/libc.a(lseek.o)
                              /home/nikos/musl-cross-make/output/x86_64-linux-musl/lib/libc.a(__stdio_seek.o) (__lseek)
/home/nikos/musl-cross-make/output/x86_64-linux-musl/lib/libc.a(syscall_ret.o)
                              /home/nikos/musl-cross-make/output/x86_64-linux-musl/lib/libc.a(__stdio_close.o) (__syscall_ret)
/home/nikos/musl-cross-make/output/x86_64-linux-musl/lib/libc.a(wcrtomb.o)
                              /home/nikos/musl-cross-make/output/x86_64-linux-musl/lib/libc.a(wctomb.o) (wcrtomb)
/home/nikos/musl-cross-make/output/x86_64-linux-musl/lib/libc.a(__stdio_exit.o)
                              /home/nikos/musl-cross-make/output/x86_64-linux-musl/lib/libc.a(__towrite.o) (__stdio_exit_needed)
/home/nikos/musl-cross-make/output/x86_64-linux-musl/lib/libc.a(__stdio_write.o)
                              /home/nikos/musl-cross-make/output/x86_64-linux-musl/lib/libc.a(__stdout_write.o) (__stdio_write)
/home/nikos/musl-cross-make/output/x86_64-linux-musl/lib/libc.a(ofl.o)
                              /home/nikos/musl-cross-make/output/x86_64-linux-musl/lib/libc.a(__stdio_exit.o) (__ofl_lock)
/home/nikos/musl-cross-make/output/x86_64-linux-musl/lib/libc.a(__lock.o)
                              /home/nikos/musl-cross-make/output/x86_64-linux-musl/lib/libc.a(ofl.o) (__lock)

Allocating common symbols
Common symbol       size              file

__libc              0x68              /home/nikos/musl-cross-make/output/x86_64-linux-musl/lib/libc.a(libc.o)
__hwcap             0x8               /home/nikos/musl-cross-make/output/x86_64-linux-musl/lib/libc.a(libc.o)
__sysinfo           0x8               /home/nikos/musl-cross-make/output/x86_64-linux-musl/lib/libc.a(defsysinfo.o)
__thread_list_lock  0x4               /home/nikos/musl-cross-make/output/x86_64-linux-musl/lib/libc.a(__init_tls.o)

Discarded input sections

 .note.GNU-stack
                0x0000000000000000        0x0 0x1 call_leaf_x86_64.o
 .note.GNU-stack
                0x0000000000000000        0x0 0x1 /home/nikos/musl-cross-make/output/x86_64-linux-musl/lib/crt1.o
 .note.GNU-stack
                0x0000000000000000        0x0 0x1 /home/nikos/musl-cross-make/output/x86_64-linux-musl/lib/libc.a(__libc_start_main.o)
 .note.GNU-stack
                0x0000000000000000        0x0 0x1 /home/nikos/musl-cross-make/output/x86_64-linux-musl/lib/libc.a(exit.o)
 .note.GNU-stack
                0x0000000000000000        0x0 0x1 /home/nikos/musl-cross-make/output/x86_64-linux-musl/lib/libc.a(defsysinfo.o)
 .note.GNU-stack
                0x0000000000000000        0x0 0x1 /home/nikos/musl-cross-make/output/x86_64-linux-musl/lib/libc.a(libc.o)
 .note.GNU-stack
                0x0000000000000000        0x0 0x1 /home/nikos/musl-cross-make/output/x86_64-linux-musl/lib/libc.a(printf.o)
 .note.GNU-stack
                0x0000000000000000        0x0 0x1 /home/nikos/musl-cross-make/output/x86_64-linux-musl/lib/libc.a(stdout.o)
 .note.GNU-stack
                0x0000000000000000        0x0 0x1 /home/nikos/musl-cross-make/output/x86_64-linux-musl/lib/libc.a(vfprintf.o)
 .note.GNU-stack
                0x0000000000000000        0x0 0x1 /home/nikos/musl-cross-make/output/x86_64-linux-musl/lib/libc.a(strnlen.o)
 .note.GNU-stack
                0x0000000000000000        0x0 0x1 /home/nikos/musl-cross-make/output/x86_64-linux-musl/lib/libc.a(memset.o)
 .note.GNU-stack
                0x0000000000000000        0x0 0x1 /home/nikos/musl-cross-make/output/x86_64-linux-musl/lib/libc.a(__environ.o)
 .note.GNU-stack
                0x0000000000000000        0x0 0x1 /home/nikos/musl-cross-make/output/x86_64-linux-musl/lib/libc.a(__init_tls.o)
 .note.GNU-stack
                0x0000000000000000        0x0 0x1 /home/nikos/musl-cross-make/output/x86_64-linux-musl/lib/libc.a(__errno_location.o)
 .note.GNU-stack
                0x0000000000000000        0x0 0x1 /home/nikos/musl-cross-make/output/x86_64-linux-musl/lib/libc.a(strerror.o)
 .note.GNU-stack
                0x0000000000000000        0x0 0x1 /home/nikos/musl-cross-make/output/x86_64-linux-musl/lib/libc.a(_Exit.o)
 .note.GNU-stack
                0x0000000000000000        0x0 0x1 /home/nikos/musl-cross-make/output/x86_64-linux-musl/lib/libc.a(__lctrans.o)
 .note.GNU-stack
                0x0000000000000000        0x0 0x1 /home/nikos/musl-cross-make/output/x86_64-linux-musl/lib/libc.a(__fpclassifyl.o)
 .note.GNU-stack
                0x0000000000000000        0x0 0x1 /home/nikos/musl-cross-make/output/x86_64-linux-musl/lib/libc.a(__signbitl.o)
 .note.GNU-stack
                0x0000000000000000        0x0 0x1 /home/nikos/musl-cross-make/output/x86_64-linux-musl/lib/libc.a(frexpl.o)
 .note.GNU-stack
                0x0000000000000000        0x0 0x1 /home/nikos/musl-cross-make/output/x86_64-linux-musl/lib/libc.a(wctomb.o)
 .note.GNU-stack
                0x0000000000000000        0x0 0x1 /home/nikos/musl-cross-make/output/x86_64-linux-musl/lib/libc.a(__lockfile.o)
 .note.GNU-stack
                0x0000000000000000        0x0 0x1 /home/nikos/musl-cross-make/output/x86_64-linux-musl/lib/libc.a(__stdio_close.o)
 .note.GNU-stack
                0x0000000000000000        0x0 0x1 /home/nikos/musl-cross-make/output/x86_64-linux-musl/lib/libc.a(__stdio_seek.o)
 .note.GNU-stack
                0x0000000000000000        0x0 0x1 /home/nikos/musl-cross-make/output/x86_64-linux-musl/lib/libc.a(__stdout_write.o)
 .note.GNU-stack
                0x0000000000000000        0x0 0x1 /home/nikos/musl-cross-make/output/x86_64-linux-musl/lib/libc.a(__towrite.o)
 .note.GNU-stack
                0x0000000000000000        0x0 0x1 /home/nikos/musl-cross-make/output/x86_64-linux-musl/lib/libc.a(fwrite.o)
 .note.GNU-stack
                0x0000000000000000        0x0 0x1 /home/nikos/musl-cross-make/output/x86_64-linux-musl/lib/libc.a(memchr.o)
 .note.GNU-stack
                0x0000000000000000        0x0 0x1 /home/nikos/musl-cross-make/output/x86_64-linux-musl/lib/libc.a(memcpy.o)
 .note.GNU-stack
                0x0000000000000000        0x0 0x1 /home/nikos/musl-cross-make/output/x86_64-linux-musl/lib/libc.a(default_attr.o)
 .note.GNU-stack
                0x0000000000000000        0x0 0x1 /home/nikos/musl-cross-make/output/x86_64-linux-musl/lib/libc.a(__set_thread_area.o)
 .note.GNU-stack
                0x0000000000000000        0x0 0x1 /home/nikos/musl-cross-make/output/x86_64-linux-musl/lib/libc.a(lseek.o)
 .note.GNU-stack
                0x0000000000000000        0x0 0x1 /home/nikos/musl-cross-make/output/x86_64-linux-musl/lib/libc.a(syscall_ret.o)
 .note.GNU-stack
                0x0000000000000000        0x0 0x1 /home/nikos/musl-cross-make/output/x86_64-linux-musl/lib/libc.a(wcrtomb.o)
 .note.GNU-stack
                0x0000000000000000        0x0 0x1 /home/nikos/musl-cross-make/output/x86_64-linux-musl/lib/libc.a(__stdio_exit.o)
 .note.GNU-stack
                0x0000000000000000        0x0 0x1 /home/nikos/musl-cross-make/output/x86_64-linux-musl/lib/libc.a(__stdio_write.o)
 .note.GNU-stack
                0x0000000000000000        0x0 0x1 /home/nikos/musl-cross-make/output/x86_64-linux-musl/lib/libc.a(ofl.o)
 .note.GNU-stack
                0x0000000000000000        0x0 0x1 /home/nikos/musl-cross-make/output/x86_64-linux-musl/lib/libc.a(__lock.o)

Memory map

 ** file header
                0x0000000000400000       0x40
 ** segment headers
                0x0000000000400040       0xe0

.note.gnu.build-id
                0x0000000000400120       0x24
 ** note header
                0x0000000000400120       0x10
 ** zero fill   0x0000000000400130       0x14

.text           0x0000000000400150     0x28e3
 .text.exit     0x0000000000400150       0x22 0x1 /home/nikos/musl-cross-make/output/x86_64-linux-musl/lib/libc.a(exit.o)
                0x0000000000400150                exit
 .text          0x0000000000400174        0x0 0x4 call_leaf_x86_64.o
 .text.add_7    0x0000000000400180       0x52 0x10 call_leaf_x86_64.o
                0x0000000000400180                add_7
 ** fill        0x00000000004001d2        0xe
 .text.main     0x00000000004001e0       0x68 0x10 call_leaf_x86_64.o
                0x00000000004001e0                main
 .text          0x0000000000400248       0x16 0x1 /home/nikos/musl-cross-make/output/x86_64-linux-musl/lib/crt1.o
                0x0000000000400248                _start
 .text._start_c
                0x000000000040025e       0x1f 0x1 /home/nikos/musl-cross-make/output/x86_64-linux-musl/lib/crt1.o
                0x000000000040025e                _start_c
 .text          0x000000000040027d        0x0 0x1 /home/nikos/musl-cross-make/output/x86_64-linux-musl/lib/libc.a(__libc_start_main.o)
 .text.dummy    0x000000000040027d        0x1 0x1 /home/nikos/musl-cross-make/output/x86_64-linux-musl/lib/libc.a(__libc_start_main.o)
                0x000000000040027d                _init
 .text.dummy1   0x000000000040027e        0x1 0x1 /home/nikos/musl-cross-make/output/x86_64-linux-musl/lib/libc.a(__libc_start_main.o)
                0x000000000040027e                __init_ssp
 .text.__init_libc
                0x000000000040027f      0x171 0x1 /home/nikos/musl-cross-make/output/x86_64-linux-musl/lib/libc.a(__libc_start_main.o)
                0x000000000040027f                __init_libc
 .text.libc_start_init
                0x00000000004003f0       0x1e 0x1 /home/nikos/musl-cross-make/output/x86_64-linux-musl/lib/libc.a(__libc_start_main.o)
                0x00000000004003f0                __libc_start_init
 .text.libc_start_main_stage2
                0x000000000040040e       0x2e 0x1 /home/nikos/musl-cross-make/output/x86_64-linux-musl/lib/libc.a(__libc_start_main.o)
 .text.__libc_start_main
                0x000000000040043c       0x3a 0x1 /home/nikos/musl-cross-make/output/x86_64-linux-musl/lib/libc.a(__libc_start_main.o)
                0x000000000040043c                __libc_start_main
 .text          0x0000000000400476        0x0 0x1 /home/nikos/musl-cross-make/output/x86_64-linux-musl/lib/libc.a(exit.o)
 .text.dummy    0x0000000000400476        0x1 0x1 /home/nikos/musl-cross-make/output/x86_64-linux-musl/lib/libc.a(exit.o)
                0x0000000000400476                _fini
                0x0000000000400476                __funcs_on_exit
 .text.libc_exit_fini
                0x0000000000400477       0x21 0x1 /home/nikos/musl-cross-make/output/x86_64-linux-musl/lib/libc.a(exit.o)
                0x0000000000400477                __libc_exit_fini
 .text          0x0000000000400498        0x0 0x1 /home/nikos/musl-cross-make/output/x86_64-linux-musl/lib/libc.a(defsysinfo.o)
 .text          0x0000000000400498        0x0 0x1 /home/nikos/musl-cross-make/output/x86_64-linux-musl/lib/libc.a(libc.o)
 .text          0x0000000000400498        0x0 0x1 /home/nikos/musl-cross-make/output/x86_64-linux-musl/lib/libc.a(printf.o)
 .text.printf   0x0000000000400498       0x9f 0x1 /home/nikos/musl-cross-make/output/x86_64-linux-musl/lib/libc.a(printf.o)
                0x0000000000400498                printf
 .text          0x0000000000400537        0x0 0x1 /home/nikos/musl-cross-make/output/x86_64-linux-musl/lib/libc.a(stdout.o)
 .text          0x0000000000400537        0x0 0x1 /home/nikos/musl-cross-make/output/x86_64-linux-musl/lib/libc.a(vfprintf.o)
 .text.pop_arg  0x0000000000400537      0x165 0x1 /home/nikos/musl-cross-make/output/x86_64-linux-musl/lib/libc.a(vfprintf.o)
 .text.fmt_u    0x000000000040069c       0x24 0x1 /home/nikos/musl-cross-make/output/x86_64-linux-musl/lib/libc.a(vfprintf.o)
 .text.getint   0x00000000004006c0       0x37 0x1 /home/nikos/musl-cross-make/output/x86_64-linux-musl/lib/libc.a(vfprintf.o)
 .text.out      0x00000000004006f7       0x18 0x1 /home/nikos/musl-cross-make/output/x86_64-linux-musl/lib/libc.a(vfprintf.o)
 .text.pad      0x000000000040070f       0x89 0x1 /home/nikos/musl-cross-make/output/x86_64-linux-musl/lib/libc.a(vfprintf.o)
 .text.fmt_fp   0x0000000000400798      0xb54 0x1 /home/nikos/musl-cross-make/output/x86_64-linux-musl/lib/libc.a(vfprintf.o)
 .text.printf_core
                0x00000000004012ec      0x945 0x1 /home/nikos/musl-cross-make/output/x86_64-linux-musl/lib/libc.a(vfprintf.o)
 .text.vfprintf
                0x0000000000401c31      0x170 0x1 /home/nikos/musl-cross-make/output/x86_64-linux-musl/lib/libc.a(vfprintf.o)
                0x0000000000401c31                vfprintf
 .text          0x0000000000401da1        0x0 0x1 /home/nikos/musl-cross-make/output/x86_64-linux-musl/lib/libc.a(strnlen.o)
 ** fill        0x0000000000401da1        0xd
 .text.strnlen  0x0000000000401db0       0x2d 0x10 /home/nikos/musl-cross-make/output/x86_64-linux-musl/lib/libc.a(strnlen.o)
                0x0000000000401db0                strnlen
 .text          0x0000000000401ddd       0xc4 0x1 /home/nikos/musl-cross-make/output/x86_64-linux-musl/lib/libc.a(memset.o)
                0x0000000000401ddd                memset
 .text          0x0000000000401ea1        0x0 0x1 /home/nikos/musl-cross-make/output/x86_64-linux-musl/lib/libc.a(__environ.o)
 .text          0x0000000000401ea1        0x0 0x1 /home/nikos/musl-cross-make/output/x86_64-linux-musl/lib/libc.a(__init_tls.o)
 .text.__init_tp
                0x0000000000401ea1       0x66 0x1 /home/nikos/musl-cross-make/output/x86_64-linux-musl/lib/libc.a(__init_tls.o)
                0x0000000000401ea1                __init_tp
 .text.__copy_tls
                0x0000000000401f07       0x81 0x1 /home/nikos/musl-cross-make/output/x86_64-linux-musl/lib/libc.a(__init_tls.o)
                0x0000000000401f07                __copy_tls
 .text.static_init_tls
                0x0000000000401f88      0x182 0x1 /home/nikos/musl-cross-make/output/x86_64-linux-musl/lib/libc.a(__init_tls.o)
                0x0000000000401f88                __init_tls
 .text          0x000000000040210a        0x0 0x1 /home/nikos/musl-cross-make/output/x86_64-linux-musl/lib/libc.a(__errno_location.o)
 .text.__errno_location
                0x000000000040210a        0xe 0x1 /home/nikos/musl-cross-make/output/x86_64-linux-musl/lib/libc.a(__errno_location.o)
                0x000000000040210a                __errno_location
                0x000000000040210a                ___errno_location
 .text          0x0000000000402118        0x0 0x1 /home/nikos/musl-cross-make/output/x86_64-linux-musl/lib/libc.a(strerror.o)
 .text.__strerror_l
                0x0000000000402118       0x25 0x1 /home/nikos/musl-cross-make/output/x86_64-linux-musl/lib/libc.a(strerror.o)
                0x0000000000402118                __strerror_l
                0x0000000000402118                strerror_l
 .text.strerror
                0x000000000040213d       0x15 0x1 /home/nikos/musl-cross-make/output/x86_64-linux-musl/lib/libc.a(strerror.o)
                0x000000000040213d                strerror
 .text          0x0000000000402152        0x0 0x1 /home/nikos/musl-cross-make/output/x86_64-linux-musl/lib/libc.a(_Exit.o)
 .text._Exit    0x0000000000402152       0x16 0x1 /home/nikos/musl-cross-make/output/x86_64-linux-musl/lib/libc.a(_Exit.o)
                0x0000000000402152                _Exit
 .text          0x0000000000402168        0x0 0x1 /home/nikos/musl-cross-make/output/x86_64-linux-musl/lib/libc.a(__lctrans.o)
 .text.dummy    0x0000000000402168        0x4 0x1 /home/nikos/musl-cross-make/output/x86_64-linux-musl/lib/libc.a(__lctrans.o)
                0x0000000000402168                __lctrans_impl
 .text.__lctrans
                0x000000000040216c        0x5 0x1 /home/nikos/musl-cross-make/output/x86_64-linux-musl/lib/libc.a(__lctrans.o)
                0x000000000040216c                __lctrans
 .text.__lctrans_cur
                0x0000000000402171       0x19 0x1 /home/nikos/musl-cross-make/output/x86_64-linux-musl/lib/libc.a(__lctrans.o)
                0x0000000000402171                __lctrans_cur
 .text          0x000000000040218a        0x0 0x1 /home/nikos/musl-cross-make/output/x86_64-linux-musl/lib/libc.a(__fpclassifyl.o)
 .text.__fpclassifyl
                0x000000000040218a       0x4a 0x1 /home/nikos/musl-cross-make/output/x86_64-linux-musl/lib/libc.a(__fpclassifyl.o)
                0x000000000040218a                __fpclassifyl
 .text          0x00000000004021d4        0x0 0x1 /home/nikos/musl-cross-make/output/x86_64-linux-musl/lib/libc.a(__signbitl.o)
 .text.__signbitl
                0x00000000004021d4        0xc 0x1 /home/nikos/musl-cross-make/output/x86_64-linux-musl/lib/libc.a(__signbitl.o)
                0x00000000004021d4                __signbitl
 .text          0x00000000004021e0        0x0 0x1 /home/nikos/musl-cross-make/output/x86_64-linux-musl/lib/libc.a(frexpl.o)
 .text.frexpl   0x00000000004021e0       0x87 0x1 /home/nikos/musl-cross-make/output/x86_64-linux-musl/lib/libc.a(frexpl.o)
                0x00000000004021e0                frexpl
 .text          0x0000000000402267        0x0 0x1 /home/nikos/musl-cross-make/output/x86_64-linux-musl/lib/libc.a(wctomb.o)
 .text.wctomb   0x0000000000402267       0x12 0x1 /home/nikos/musl-cross-make/output/x86_64-linux-musl/lib/libc.a(wctomb.o)
                0x0000000000402267                wctomb
 .text          0x0000000000402279        0x0 0x1 /home/nikos/musl-cross-make/output/x86_64-linux-musl/lib/libc.a(__lockfile.o)
 .text.__lockfile
                0x0000000000402279       0xb2 0x1 /home/nikos/musl-cross-make/output/x86_64-linux-musl/lib/libc.a(__lockfile.o)
                0x0000000000402279                __lockfile
 .text.__unlockfile
                0x000000000040232b       0x3c 0x1 /home/nikos/musl-cross-make/output/x86_64-linux-musl/lib/libc.a(__lockfile.o)
                0x000000000040232b                __unlockfile
 .text          0x0000000000402367        0x0 0x1 /home/nikos/musl-cross-make/output/x86_64-linux-musl/lib/libc.a(__stdio_close.o)
 .text.dummy    0x0000000000402367        0x3 0x1 /home/nikos/musl-cross-make/output/x86_64-linux-musl/lib/libc.a(__stdio_close.o)
                0x0000000000402367                __aio_close
 .text.__stdio_close
                0x000000000040236a       0x1d 0x1 /home/nikos/musl-cross-make/output/x86_64-linux-musl/lib/libc.a(__stdio_close.o)
                0x000000000040236a                __stdio_close
 .text          0x0000000000402387        0x0 0x1 /home/nikos/musl-cross-make/output/x86_64-linux-musl/lib/libc.a(__stdio_seek.o)
 .text.__stdio_seek
                0x0000000000402387        0x8 0x1 /home/nikos/musl-cross-make/output/x86_64-linux-musl/lib/libc.a(__stdio_seek.o)
                0x0000000000402387                __stdio_seek
 .text          0x000000000040238f        0x0 0x1 /home/nikos/musl-cross-make/output/x86_64-linux-musl/lib/libc.a(__stdout_write.o)
 .text.__stdout_write
                0x000000000040238f       0x52 0x1 /home/nikos/musl-cross-make/output/x86_64-linux-musl/lib/libc.a(__stdout_write.o)
                0x000000000040238f                __stdout_write
 .text          0x00000000004023e1        0x0 0x1 /home/nikos/musl-cross-make/output/x86_64-linux-musl/lib/libc.a(__towrite.o)
 .text.__towrite
                0x00000000004023e1       0x47 0x1 /home/nikos/musl-cross-make/output/x86_64-linux-musl/lib/libc.a(__towrite.o)
                0x00000000004023e1                __towrite
 .text.__towrite_needs_stdio_exit
                0x0000000000402428        0x5 0x1 /home/nikos/musl-cross-make/output/x86_64-linux-musl/lib/libc.a(__towrite.o)
                0x0000000000402428                __towrite_needs_stdio_exit
 .text          0x000000000040242d        0x0 0x1 /home/nikos/musl-cross-make/output/x86_64-linux-musl/lib/libc.a(fwrite.o)
 .text.__fwritex
                0x000000000040242d       0xaf 0x1 /home/nikos/musl-cross-make/output/x86_64-linux-musl/lib/libc.a(fwrite.o)
                0x000000000040242d                __fwritex
 .text.fwrite   0x00000000004024dc       0x80 0x1 /home/nikos/musl-cross-make/output/x86_64-linux-musl/lib/libc.a(fwrite.o)
                0x00000000004024dc                fwrite
                0x00000000004024dc                fwrite_unlocked
 .text          0x000000000040255c        0x0 0x1 /home/nikos/musl-cross-make/output/x86_64-linux-musl/lib/libc.a(memchr.o)
 ** fill        0x000000000040255c        0x4
 .text.memchr   0x0000000000402560       0xc4 0x10 /home/nikos/musl-cross-make/output/x86_64-linux-musl/lib/libc.a(memchr.o)
                0x0000000000402560                memchr
 .text          0x0000000000402624       0x32 0x1 /home/nikos/musl-cross-make/output/x86_64-linux-musl/lib/libc.a(memcpy.o)
                0x0000000000402624                memcpy
                0x0000000000402624                __memcpy_fwd
 .text          0x0000000000402656        0x0 0x1 /home/nikos/musl-cross-make/output/x86_64-linux-musl/lib/libc.a(default_attr.o)
 .text          0x0000000000402656       0x10 0x1 /home/nikos/musl-cross-make/output/x86_64-linux-musl/lib/libc.a(__set_thread_area.o)
                0x0000000000402656                __set_thread_area
 .text          0x0000000000402666        0x0 0x1 /home/nikos/musl-cross-make/output/x86_64-linux-musl/lib/libc.a(lseek.o)
 .text.__lseek  0x0000000000402666       0x15 0x1 /home/nikos/musl-cross-make/output/x86_64-linux-musl/lib/libc.a(lseek.o)
                0x0000000000402666                __lseek
                0x0000000000402666                lseek64
                0x0000000000402666                lseek
 .text          0x000000000040267b        0x0 0x1 /home/nikos/musl-cross-make/output/x86_64-linux-musl/lib/libc.a(syscall_ret.o)
 ** fill        0x000000000040267b        0x5
 .text.__syscall_ret
                0x0000000000402680       0x33 0x10 /home/nikos/musl-cross-make/output/x86_64-linux-musl/lib/libc.a(syscall_ret.o)
                0x0000000000402680                __syscall_ret
 .text          0x00000000004026b3        0x0 0x1 /home/nikos/musl-cross-make/output/x86_64-linux-musl/lib/libc.a(wcrtomb.o)
 .text.wcrtomb  0x00000000004026b3      0x10c 0x1 /home/nikos/musl-cross-make/output/x86_64-linux-musl/lib/libc.a(wcrtomb.o)
                0x00000000004026b3                wcrtomb
 .text          0x00000000004027bf        0x0 0x1 /home/nikos/musl-cross-make/output/x86_64-linux-musl/lib/libc.a(__stdio_exit.o)
 .text.close_file
                0x00000000004027bf       0x4e 0x1 /home/nikos/musl-cross-make/output/x86_64-linux-musl/lib/libc.a(__stdio_exit.o)
 .text.__stdio_exit
                0x000000000040280d       0x41 0x1 /home/nikos/musl-cross-make/output/x86_64-linux-musl/lib/libc.a(__stdio_exit.o)
                0x000000000040280d                __stdio_exit
                0x000000000040280d                __stdio_exit_needed
 .text          0x000000000040284e        0x0 0x1 /home/nikos/musl-cross-make/output/x86_64-linux-musl/lib/libc.a(__stdio_write.o)
 .text.__stdio_write
                0x000000000040284e       0xdd 0x1 /home/nikos/musl-cross-make/output/x86_64-linux-musl/lib/libc.a(__stdio_write.o)
                0x000000000040284e                __stdio_write
 .text          0x000000000040292b        0x0 0x1 /home/nikos/musl-cross-make/output/x86_64-linux-musl/lib/libc.a(ofl.o)
 .text.__ofl_lock
                0x000000000040292b       0x12 0x1 /home/nikos/musl-cross-make/output/x86_64-linux-musl/lib/libc.a(ofl.o)
                0x000000000040292b                __ofl_lock
 .text.__ofl_unlock
                0x000000000040293d        0xa 0x1 /home/nikos/musl-cross-make/output/x86_64-linux-musl/lib/libc.a(ofl.o)
                0x000000000040293d                __ofl_unlock
 .text          0x0000000000402947        0x0 0x1 /home/nikos/musl-cross-make/output/x86_64-linux-musl/lib/libc.a(__lock.o)
 .text.__lock   0x0000000000402947       0xb2 0x1 /home/nikos/musl-cross-make/output/x86_64-linux-musl/lib/libc.a(__lock.o)
                0x0000000000402947                __lock
 .text.__unlock
                0x00000000004029f9       0x3a 0x1 /home/nikos/musl-cross-make/output/x86_64-linux-musl/lib/libc.a(__lock.o)
                0x00000000004029f9                __unlock

.rodata         0x0000000000402a40      0xd5e
 .rodata.call_leaf__str__d__
                0x0000000000402a40        0x4 0x1 call_leaf_x86_64.o
                0x0000000000402a40                call_leaf__str__d__
 .rodata.call_leaf__str_1_boom__
                0x0000000000402a44        0x6 0x1 call_leaf_x86_64.o
                0x0000000000402a44                call_leaf__str_1_boom__
 ** merge strings
                0x0000000000402a4a       0x41
 .rodata.stdout
                0x0000000000402a90        0x8 0x8 /home/nikos/musl-cross-make/output/x86_64-linux-musl/lib/libc.a(stdout.o)
                0x0000000000402a90                stdout
 .rodata.pop_arg
                0x0000000000402a98       0x90 0x8 /home/nikos/musl-cross-make/output/x86_64-linux-musl/lib/libc.a(vfprintf.o)
 .rodata.printf_core
                0x0000000000402b28      0x200 0x8 /home/nikos/musl-cross-make/output/x86_64-linux-musl/lib/libc.a(vfprintf.o)
 .rodata.xdigits
                0x0000000000402d30       0x10 0x10 /home/nikos/musl-cross-make/output/x86_64-linux-musl/lib/libc.a(vfprintf.o)
 .rodata.states
                0x0000000000402d40      0x1d0 0x20 /home/nikos/musl-cross-make/output/x86_64-linux-musl/lib/libc.a(vfprintf.o)
 ** merge constants
                0x0000000000402f10       0x20
 ** merge constants
                0x0000000000402f30       0x20
 .rodata.errmsgidx
                0x0000000000402f60      0x108 0x20 /home/nikos/musl-cross-make/output/x86_64-linux-musl/lib/libc.a(strerror.o)
 .rodata.errmsgstr
                0x0000000000403080      0x71e 0x20 /home/nikos/musl-cross-make/output/x86_64-linux-musl/lib/libc.a(strerror.o)

.eh_frame       0x00000000004037a0       0x58
 ** eh_frame    0x00000000004037a0       0x58

.data           0x0000000000404800      0x110
 .data.y        0x0000000000404800        0x4 0x4 call_leaf_x86_64.o
                0x0000000000404800                y
 .data.call_leaf_ll_v
                0x0000000000404804        0x4 0x4 call_leaf_x86_64.o
 .data.call_leaf_ll_w
                0x0000000000404808        0x4 0x4 call_leaf_x86_64.o
 .data.call_leaf_ll_o
                0x000000000040480c        0x4 0x4 call_leaf_x86_64.o
 .data          0x0000000000404810        0x0 0x1 /home/nikos/musl-cross-make/output/x86_64-linux-musl/lib/crt1.o
 .data          0x0000000000404810        0x0 0x1 /home/nikos/musl-cross-make/output/x86_64-linux-musl/lib/libc.a(__libc_start_main.o)
 .data          0x0000000000404810        0x0 0x1 /home/nikos/musl-cross-make/output/x86_64-linux-musl/lib/libc.a(exit.o)
 .data          0x0000000000404810        0x0 0x1 /home/nikos/musl-cross-make/output/x86_64-linux-musl/lib/libc.a(defsysinfo.o)
 .data          0x0000000000404810        0x0 0x1 /home/nikos/musl-cross-make/output/x86_64-linux-musl/lib/libc.a(libc.o)
 .data          0x0000000000404810        0x0 0x1 /home/nikos/musl-cross-make/output/x86_64-linux-musl/lib/libc.a(printf.o)
 .data          0x0000000000404810        0x0 0x1 /home/nikos/musl-cross-make/output/x86_64-linux-musl/lib/libc.a(stdout.o)
 .data.__stdout_used
                0x0000000000404810        0x8 0x8 /home/nikos/musl-cross-make/output/x86_64-linux-musl/lib/libc.a(stdout.o)
                0x0000000000404810                __stdout_used
 .data.__stdout_FILE
                0x0000000000404820       0xe8 0x20 /home/nikos/musl-cross-make/output/x86_64-linux-musl/lib/libc.a(stdout.o)
                0x0000000000404820                __stdout_FILE
 .data          0x0000000000404908        0x0 0x1 /home/nikos/musl-cross-make/output/x86_64-linux-musl/lib/libc.a(vfprintf.o)
 .data          0x0000000000404908        0x0 0x1 /home/nikos/musl-cross-make/output/x86_64-linux-musl/lib/libc.a(strnlen.o)
 .data          0x0000000000404908        0x0 0x1 /home/nikos/musl-cross-make/output/x86_64-linux-musl/lib/libc.a(memset.o)
 .data          0x0000000000404908        0x0 0x1 /home/nikos/musl-cross-make/output/x86_64-linux-musl/lib/libc.a(__environ.o)
 .data          0x0000000000404908        0x0 0x1 /home/nikos/musl-cross-make/output/x86_64-linux-musl/lib/libc.a(__init_tls.o)
 .data          0x0000000000404908        0x0 0x1 /home/nikos/musl-cross-make/output/x86_64-linux-musl/lib/libc.a(__errno_location.o)
 .data          0x0000000000404908        0x0 0x1 /home/nikos/musl-cross-make/output/x86_64-linux-musl/lib/libc.a(strerror.o)
 .data          0x0000000000404908        0x0 0x1 /home/nikos/musl-cross-make/output/x86_64-linux-musl/lib/libc.a(_Exit.o)
 .data          0x0000000000404908        0x0 0x1 /home/nikos/musl-cross-make/output/x86_64-linux-musl/lib/libc.a(__lctrans.o)
 .data          0x0000000000404908        0x0 0x1 /home/nikos/musl-cross-make/output/x86_64-linux-musl/lib/libc.a(__fpclassifyl.o)
 .data          0x0000000000404908        0x0 0x1 /home/nikos/musl-cross-make/output/x86_64-linux-musl/lib/libc.a(__signbitl.o)
 .data          0x0000000000404908        0x0 0x1 /home/nikos/musl-cross-make/output/x86_64-linux-musl/lib/libc.a(frexpl.o)
 .data          0x0000000000404908        0x0 0x1 /home/nikos/musl-cross-make/output/x86_64-linux-musl/lib/libc.a(wctomb.o)
 .data          0x0000000000404908        0x0 0x1 /home/nikos/musl-cross-make/output/x86_64-linux-musl/lib/libc.a(__lockfile.o)
 .data          0x0000000000404908        0x0 0x1 /home/nikos/musl-cross-make/output/x86_64-linux-musl/lib/libc.a(__stdio_close.o)
 .data          0x0000000000404908        0x0 0x1 /home/nikos/musl-cross-make/output/x86_64-linux-musl/lib/libc.a(__stdio_seek.o)
 .data          0x0000000000404908        0x0 0x1 /home/nikos/musl-cross-make/output/x86_64-linux-musl/lib/libc.a(__stdout_write.o)
 .data          0x0000000000404908        0x0 0x1 /home/nikos/musl-cross-make/output/x86_64-linux-musl/lib/libc.a(__towrite.o)
 .data          0x0000000000404908        0x0 0x1 /home/nikos/musl-cross-make/output/x86_64-linux-musl/lib/libc.a(fwrite.o)
 .data          0x0000000000404908        0x0 0x1 /home/nikos/musl-cross-make/output/x86_64-linux-musl/lib/libc.a(memchr.o)
 .data          0x0000000000404908        0x0 0x1 /home/nikos/musl-cross-make/output/x86_64-linux-musl/lib/libc.a(memcpy.o)
 .data          0x0000000000404908        0x0 0x1 /home/nikos/musl-cross-make/output/x86_64-linux-musl/lib/libc.a(default_attr.o)
 .data.__default_guardsize
                0x0000000000404908        0x4 0x4 /home/nikos/musl-cross-make/output/x86_64-linux-musl/lib/libc.a(default_attr.o)
                0x0000000000404908                __default_guardsize
 .data.__default_stacksize
                0x000000000040490c        0x4 0x4 /home/nikos/musl-cross-make/output/x86_64-linux-musl/lib/libc.a(default_attr.o)
                0x000000000040490c                __default_stacksize
 .data          0x0000000000404910        0x0 0x1 /home/nikos/musl-cross-make/output/x86_64-linux-musl/lib/libc.a(__set_thread_area.o)
 .data          0x0000000000404910        0x0 0x1 /home/nikos/musl-cross-make/output/x86_64-linux-musl/lib/libc.a(lseek.o)
 .data          0x0000000000404910        0x0 0x1 /home/nikos/musl-cross-make/output/x86_64-linux-musl/lib/libc.a(syscall_ret.o)
 .data          0x0000000000404910        0x0 0x1 /home/nikos/musl-cross-make/output/x86_64-linux-musl/lib/libc.a(wcrtomb.o)
 .data          0x0000000000404910        0x0 0x1 /home/nikos/musl-cross-make/output/x86_64-linux-musl/lib/libc.a(__stdio_exit.o)
 .data          0x0000000000404910        0x0 0x1 /home/nikos/musl-cross-make/output/x86_64-linux-musl/lib/libc.a(__stdio_write.o)
 .data          0x0000000000404910        0x0 0x1 /home/nikos/musl-cross-make/output/x86_64-linux-musl/lib/libc.a(ofl.o)
 .data          0x0000000000404910        0x0 0x1 /home/nikos/musl-cross-make/output/x86_64-linux-musl/lib/libc.a(__lock.o)

.bss            0x0000000000404920      0x67c
 .bss.z         0x0000000000404920        0x4 0x4 call_leaf_x86_64.o
                0x0000000000404920                z
 .bss           0x0000000000404924        0x0 0x1 /home/nikos/musl-cross-make/output/x86_64-linux-musl/lib/crt1.o
 .bss           0x0000000000404924        0x0 0x1 /home/nikos/musl-cross-make/output/x86_64-linux-musl/lib/libc.a(__libc_start_main.o)
 .bss           0x0000000000404924        0x0 0x1 /home/nikos/musl-cross-make/output/x86_64-linux-musl/lib/libc.a(exit.o)
 .bss           0x0000000000404924        0x0 0x1 /home/nikos/musl-cross-make/output/x86_64-linux-musl/lib/libc.a(defsysinfo.o)
 .bss           0x0000000000404924        0x0 0x1 /home/nikos/musl-cross-make/output/x86_64-linux-musl/lib/libc.a(libc.o)
 .bss.__progname_full
                0x0000000000404928        0x8 0x8 /home/nikos/musl-cross-make/output/x86_64-linux-musl/lib/libc.a(libc.o)
                0x0000000000404928                __progname_full
                0x0000000000404928                program_invocation_name
 .bss.__progname
                0x0000000000404930        0x8 0x8 /home/nikos/musl-cross-make/output/x86_64-linux-musl/lib/libc.a(libc.o)
                0x0000000000404930                __progname
                0x0000000000404930                program_invocation_short_name
 .bss           0x0000000000404938        0x0 0x1 /home/nikos/musl-cross-make/output/x86_64-linux-musl/lib/libc.a(printf.o)
 .bss           0x0000000000404938        0x0 0x1 /home/nikos/musl-cross-make/output/x86_64-linux-musl/lib/libc.a(stdout.o)
 .bss.buf       0x0000000000404940      0x408 0x20 /home/nikos/musl-cross-make/output/x86_64-linux-musl/lib/libc.a(stdout.o)
 .bss           0x0000000000404d48        0x0 0x1 /home/nikos/musl-cross-make/output/x86_64-linux-musl/lib/libc.a(vfprintf.o)
 .bss           0x0000000000404d48        0x0 0x1 /home/nikos/musl-cross-make/output/x86_64-linux-musl/lib/libc.a(strnlen.o)
 .bss           0x0000000000404d48        0x0 0x1 /home/nikos/musl-cross-make/output/x86_64-linux-musl/lib/libc.a(memset.o)
 .bss           0x0000000000404d48        0x0 0x1 /home/nikos/musl-cross-make/output/x86_64-linux-musl/lib/libc.a(__environ.o)
 .bss.__environ
                0x0000000000404d48        0x8 0x8 /home/nikos/musl-cross-make/output/x86_64-linux-musl/lib/libc.a(__environ.o)
                0x0000000000404d48                __environ
                0x0000000000404d48                environ
                0x0000000000404d48                _environ
                0x0000000000404d48                ___environ
 .bss           0x0000000000404d50        0x0 0x1 /home/nikos/musl-cross-make/output/x86_64-linux-musl/lib/libc.a(__init_tls.o)
 .bss.main_tls  0x0000000000404d60       0x30 0x20 /home/nikos/musl-cross-make/output/x86_64-linux-musl/lib/libc.a(__init_tls.o)
 .bss.builtin_tls
                0x0000000000404da0      0x168 0x20 /home/nikos/musl-cross-make/output/x86_64-linux-musl/lib/libc.a(__init_tls.o)
 .bss           0x0000000000404f08        0x0 0x1 /home/nikos/musl-cross-make/output/x86_64-linux-musl/lib/libc.a(__errno_location.o)
 .bss           0x0000000000404f08        0x0 0x1 /home/nikos/musl-cross-make/output/x86_64-linux-musl/lib/libc.a(strerror.o)
 .bss           0x0000000000404f08        0x0 0x1 /home/nikos/musl-cross-make/output/x86_64-linux-musl/lib/libc.a(_Exit.o)
 .bss           0x0000000000404f08        0x0 0x1 /home/nikos/musl-cross-make/output/x86_64-linux-musl/lib/libc.a(__lctrans.o)
 .bss           0x0000000000404f08        0x0 0x1 /home/nikos/musl-cross-make/output/x86_64-linux-musl/lib/libc.a(__fpclassifyl.o)
 .bss           0x0000000000404f08        0x0 0x1 /home/nikos/musl-cross-make/output/x86_64-linux-musl/lib/libc.a(__signbitl.o)
 .bss           0x0000000000404f08        0x0 0x1 /home/nikos/musl-cross-make/output/x86_64-linux-musl/lib/libc.a(frexpl.o)
 .bss           0x0000000000404f08        0x0 0x1 /home/nikos/musl-cross-make/output/x86_64-linux-musl/lib/libc.a(wctomb.o)
 .bss           0x0000000000404f08        0x0 0x1 /home/nikos/musl-cross-make/output/x86_64-linux-musl/lib/libc.a(__lockfile.o)
 .bss           0x0000000000404f08        0x0 0x1 /home/nikos/musl-cross-make/output/x86_64-linux-musl/lib/libc.a(__stdio_close.o)
 .bss           0x0000000000404f08        0x0 0x1 /home/nikos/musl-cross-make/output/x86_64-linux-musl/lib/libc.a(__stdio_seek.o)
 .bss           0x0000000000404f08        0x0 0x1 /home/nikos/musl-cross-make/output/x86_64-linux-musl/lib/libc.a(__stdout_write.o)
 .bss           0x0000000000404f08        0x0 0x1 /home/nikos/musl-cross-make/output/x86_64-linux-musl/lib/libc.a(__towrite.o)
 .bss           0x0000000000404f08        0x0 0x1 /home/nikos/musl-cross-make/output/x86_64-linux-musl/lib/libc.a(fwrite.o)
 .bss           0x0000000000404f08        0x0 0x1 /home/nikos/musl-cross-make/output/x86_64-linux-musl/lib/libc.a(memchr.o)
 .bss           0x0000000000404f08        0x0 0x1 /home/nikos/musl-cross-make/output/x86_64-linux-musl/lib/libc.a(memcpy.o)
 .bss           0x0000000000404f08        0x0 0x1 /home/nikos/musl-cross-make/output/x86_64-linux-musl/lib/libc.a(default_attr.o)
 .bss           0x0000000000404f08        0x0 0x1 /home/nikos/musl-cross-make/output/x86_64-linux-musl/lib/libc.a(__set_thread_area.o)
 .bss           0x0000000000404f08        0x0 0x1 /home/nikos/musl-cross-make/output/x86_64-linux-musl/lib/libc.a(lseek.o)
 .bss           0x0000000000404f08        0x0 0x1 /home/nikos/musl-cross-make/output/x86_64-linux-musl/lib/libc.a(syscall_ret.o)
 .bss           0x0000000000404f08        0x0 0x1 /home/nikos/musl-cross-make/output/x86_64-linux-musl/lib/libc.a(wcrtomb.o)
 .bss           0x0000000000404f08        0x0 0x1 /home/nikos/musl-cross-make/output/x86_64-linux-musl/lib/libc.a(__stdio_exit.o)
 .bss.dummy_file
                0x0000000000404f08        0x8 0x8 /home/nikos/musl-cross-make/output/x86_64-linux-musl/lib/libc.a(__stdio_exit.o)
                0x0000000000404f08                __stdin_used
                0x0000000000404f08                __stderr_used
 .bss           0x0000000000404f10        0x0 0x1 /home/nikos/musl-cross-make/output/x86_64-linux-musl/lib/libc.a(__stdio_write.o)
 .bss           0x0000000000404f10        0x0 0x1 /home/nikos/musl-cross-make/output/x86_64-linux-musl/lib/libc.a(ofl.o)
 .bss.ofl_lock  0x0000000000404f10        0x4 0x4 /home/nikos/musl-cross-make/output/x86_64-linux-musl/lib/libc.a(ofl.o)
 .bss.ofl_head  0x0000000000404f18        0x8 0x8 /home/nikos/musl-cross-make/output/x86_64-linux-musl/lib/libc.a(ofl.o)
 .bss           0x0000000000404f20        0x0 0x1 /home/nikos/musl-cross-make/output/x86_64-linux-musl/lib/libc.a(__lock.o)
 ** common      0x0000000000404f20       0x7c

.debug_str      0x0000000000000000       0xf7
 ** merge strings
                0x0000000000000000       0xf7

.debug_abbrev   0x0000000000000000       0x7b
 .debug_abbrev  0x0000000000000000       0x7b 0x1 call_leaf_x86_64.o

.debug_info     0x0000000000000000      0x16c
 .debug_info    0x0000000000000000      0x16c 0x1 call_leaf_x86_64.o

.debug_ranges   0x0000000000000000       0x30
 .debug_ranges  0x0000000000000000       0x30 0x1 call_leaf_x86_64.o

.debug_macinfo  0x0000000000000000        0x1
 .debug_macinfo
                0x0000000000000000        0x1 0x1 call_leaf_x86_64.o

.comment        0x0000000000000000       0x7a
 ** merge strings
                0x0000000000000000       0x7a

.debug_line     0x0000000000000000       0x91
 .debug_line    0x0000000000000000       0x91 0x1 call_leaf_x86_64.o

.note.gnu.gold-version
                0x0000000000000000       0x1c
 ** note header
                0x0000000000000000       0x10
 ** fill        0x0000000000000010        0x9
 ** zero fill   0x0000000000000019        0x3

.symtab         0x0000000000000000      0xeb8
 ** symtab      0x0000000000000000      0xeb8

.strtab         0x0000000000000000      0x6ce
 ** string table
                0x0000000000000000      0x6ce

.shstrtab       0x0000000000000000       0xbf
 ** string table
                0x0000000000000000       0xbf
